
Lab-4.elf:     file format elf32-avr

Sections:
Idx Name          Size      VMA       LMA       File off  Algn
  0 .data         0000001e  00800100  00002234  000022c8  2**0
                  CONTENTS, ALLOC, LOAD, DATA
  1 .text         00002234  00000000  00000000  00000094  2**1
                  CONTENTS, ALLOC, LOAD, READONLY, CODE
  2 .bss          00000353  0080011e  0080011e  000022e6  2**0
                  ALLOC
  3 .comment      00000030  00000000  00000000  000022e6  2**0
                  CONTENTS, READONLY
  4 .note.gnu.avr.deviceinfo 00000040  00000000  00000000  00002318  2**2
                  CONTENTS, READONLY
  5 .debug_aranges 00000268  00000000  00000000  00002358  2**0
                  CONTENTS, READONLY, DEBUGGING
  6 .debug_info   00002c23  00000000  00000000  000025c0  2**0
                  CONTENTS, READONLY, DEBUGGING
  7 .debug_abbrev 0000109d  00000000  00000000  000051e3  2**0
                  CONTENTS, READONLY, DEBUGGING
  8 .debug_line   00001657  00000000  00000000  00006280  2**0
                  CONTENTS, READONLY, DEBUGGING
  9 .debug_frame  00000cc4  00000000  00000000  000078d8  2**2
                  CONTENTS, READONLY, DEBUGGING
 10 .debug_str    000009a5  00000000  00000000  0000859c  2**0
                  CONTENTS, READONLY, DEBUGGING
 11 .debug_loc    000028d7  00000000  00000000  00008f41  2**0
                  CONTENTS, READONLY, DEBUGGING
 12 .debug_ranges 00000208  00000000  00000000  0000b818  2**0
                  CONTENTS, READONLY, DEBUGGING

Disassembly of section .text:

00000000 <__vectors>:
       0:	0c 94 2e 00 	jmp	0x5c	; 0x5c <__ctors_end>
       4:	0c 94 44 05 	jmp	0xa88	; 0xa88 <__vector_1>
       8:	0c 94 b3 05 	jmp	0xb66	; 0xb66 <__vector_2>
       c:	0c 94 22 06 	jmp	0xc44	; 0xc44 <__vector_3>
      10:	0c 94 91 06 	jmp	0xd22	; 0xd22 <__vector_4>
      14:	0c 94 00 07 	jmp	0xe00	; 0xe00 <__vector_5>
      18:	0c 94 4b 00 	jmp	0x96	; 0x96 <__bad_interrupt>
      1c:	0c 94 6b 0d 	jmp	0x1ad6	; 0x1ad6 <__vector_7>
      20:	0c 94 4b 00 	jmp	0x96	; 0x96 <__bad_interrupt>
      24:	0c 94 19 0d 	jmp	0x1a32	; 0x1a32 <__vector_9>
      28:	0c 94 6f 07 	jmp	0xede	; 0xede <__vector_10>
      2c:	0c 94 de 07 	jmp	0xfbc	; 0xfbc <__vector_11>
      30:	0c 94 4d 08 	jmp	0x109a	; 0x109a <__vector_12>
      34:	0c 94 bc 08 	jmp	0x1178	; 0x1178 <__vector_13>
      38:	0c 94 2b 09 	jmp	0x1256	; 0x1256 <__vector_14>
      3c:	0c 94 9a 09 	jmp	0x1334	; 0x1334 <__vector_15>
      40:	0c 94 09 0a 	jmp	0x1412	; 0x1412 <__vector_16>
      44:	0c 94 78 0a 	jmp	0x14f0	; 0x14f0 <__vector_17>
      48:	0c 94 e7 0a 	jmp	0x15ce	; 0x15ce <__vector_18>
      4c:	0c 94 56 0b 	jmp	0x16ac	; 0x16ac <__vector_19>
      50:	0c 94 c5 0b 	jmp	0x178a	; 0x178a <__vector_20>
      54:	0c 94 34 0c 	jmp	0x1868	; 0x1868 <__vector_21>
      58:	0c 94 a3 0c 	jmp	0x1946	; 0x1946 <__vector_22>

0000005c <__ctors_end>:
      5c:	11 24       	eor	r1, r1
      5e:	1f be       	out	0x3f, r1	; 63
      60:	cf ef       	ldi	r28, 0xFF	; 255
      62:	d4 e0       	ldi	r29, 0x04	; 4
      64:	de bf       	out	0x3e, r29	; 62
      66:	cd bf       	out	0x3d, r28	; 61

00000068 <__do_copy_data>:
      68:	11 e0       	ldi	r17, 0x01	; 1
      6a:	a0 e0       	ldi	r26, 0x00	; 0
      6c:	b1 e0       	ldi	r27, 0x01	; 1
      6e:	e4 e3       	ldi	r30, 0x34	; 52
      70:	f2 e2       	ldi	r31, 0x22	; 34
      72:	02 c0       	rjmp	.+4      	; 0x78 <__do_copy_data+0x10>
      74:	05 90       	lpm	r0, Z+
      76:	0d 92       	st	X+, r0
      78:	ae 31       	cpi	r26, 0x1E	; 30
      7a:	b1 07       	cpc	r27, r17
      7c:	d9 f7       	brne	.-10     	; 0x74 <__do_copy_data+0xc>

0000007e <__do_clear_bss>:
      7e:	24 e0       	ldi	r18, 0x04	; 4
      80:	ae e1       	ldi	r26, 0x1E	; 30
      82:	b1 e0       	ldi	r27, 0x01	; 1
      84:	01 c0       	rjmp	.+2      	; 0x88 <.do_clear_bss_start>

00000086 <.do_clear_bss_loop>:
      86:	1d 92       	st	X+, r1

00000088 <.do_clear_bss_start>:
      88:	a1 37       	cpi	r26, 0x71	; 113
      8a:	b2 07       	cpc	r27, r18
      8c:	e1 f7       	brne	.-8      	; 0x86 <.do_clear_bss_loop>
      8e:	0e 94 36 02 	call	0x46c	; 0x46c <main>
      92:	0c 94 18 11 	jmp	0x2230	; 0x2230 <_exit>

00000096 <__bad_interrupt>:
      96:	0c 94 00 00 	jmp	0	; 0x0 <__vectors>

0000009a <initialize>:


#include "InputHandler.h"
#include <avr/io.h>

void initialize(InputHandler *self){
      9a:	cf 92       	push	r12
      9c:	df 92       	push	r13
      9e:	ef 92       	push	r14
      a0:	ff 92       	push	r15
      a2:	0f 93       	push	r16
      a4:	1f 93       	push	r17
      a6:	cf 93       	push	r28
      a8:	df 93       	push	r29
      aa:	ec 01       	movw	r28, r24
	SYNC(self->gui, init, NULL);
      ac:	40 e0       	ldi	r20, 0x00	; 0
      ae:	50 e0       	ldi	r21, 0x00	; 0
      b0:	6f e2       	ldi	r22, 0x2F	; 47
      b2:	72 e0       	ldi	r23, 0x02	; 2
      b4:	88 85       	ldd	r24, Y+8	; 0x08
      b6:	99 85       	ldd	r25, Y+9	; 0x09
      b8:	0e 94 14 0f 	call	0x1e28	; 0x1e28 <sync>
	ASYNC(self->pG[0], generatePulse, NULL);
      bc:	0c 81       	ldd	r16, Y+4	; 0x04
      be:	1d 81       	ldd	r17, Y+5	; 0x05
      c0:	c1 2c       	mov	r12, r1
      c2:	d1 2c       	mov	r13, r1
      c4:	0f 2e       	mov	r0, r31
      c6:	f2 ea       	ldi	r31, 0xA2	; 162
      c8:	ef 2e       	mov	r14, r31
      ca:	f2 e0       	ldi	r31, 0x02	; 2
      cc:	ff 2e       	mov	r15, r31
      ce:	f0 2d       	mov	r31, r0
      d0:	20 e0       	ldi	r18, 0x00	; 0
      d2:	30 e0       	ldi	r19, 0x00	; 0
      d4:	a9 01       	movw	r20, r18
      d6:	60 e0       	ldi	r22, 0x00	; 0
      d8:	70 e0       	ldi	r23, 0x00	; 0
      da:	cb 01       	movw	r24, r22
      dc:	0e 94 0b 0e 	call	0x1c16	; 0x1c16 <async>
	ASYNC(self->pG[1], generatePulse, NULL);
      e0:	0e 81       	ldd	r16, Y+6	; 0x06
      e2:	1f 81       	ldd	r17, Y+7	; 0x07
      e4:	20 e0       	ldi	r18, 0x00	; 0
      e6:	30 e0       	ldi	r19, 0x00	; 0
      e8:	a9 01       	movw	r20, r18
      ea:	60 e0       	ldi	r22, 0x00	; 0
      ec:	70 e0       	ldi	r23, 0x00	; 0
      ee:	cb 01       	movw	r24, r22
      f0:	0e 94 0b 0e 	call	0x1c16	; 0x1c16 <async>
}
      f4:	df 91       	pop	r29
      f6:	cf 91       	pop	r28
      f8:	1f 91       	pop	r17
      fa:	0f 91       	pop	r16
      fc:	ff 90       	pop	r15
      fe:	ef 90       	pop	r14
     100:	df 90       	pop	r13
     102:	cf 90       	pop	r12
     104:	08 95       	ret

00000106 <joystickHorizontal>:

void joystickHorizontal(InputHandler *self){
     106:	af 92       	push	r10
     108:	bf 92       	push	r11
     10a:	cf 92       	push	r12
     10c:	df 92       	push	r13
     10e:	ef 92       	push	r14
     110:	ff 92       	push	r15
     112:	0f 93       	push	r16
     114:	1f 93       	push	r17
     116:	cf 93       	push	r28
     118:	df 93       	push	r29
     11a:	ec 01       	movw	r28, r24
	int current = self->gui->current;
     11c:	e8 85       	ldd	r30, Y+8	; 0x08
     11e:	f9 85       	ldd	r31, Y+9	; 0x09
     120:	a4 80       	ldd	r10, Z+4	; 0x04
     122:	b5 80       	ldd	r11, Z+5	; 0x05

	//Left
	if ((PINE & leftMask) == 0){
     124:	62 99       	sbic	0x0c, 2	; 12
     126:	14 c0       	rjmp	.+40     	; 0x150 <joystickHorizontal+0x4a>
		if (current != 0){
     128:	a1 14       	cp	r10, r1
     12a:	b1 04       	cpc	r11, r1
     12c:	89 f0       	breq	.+34     	; 0x150 <joystickHorizontal+0x4a>
			ASYNC(self->gui, changeCurrent, 0);
     12e:	c1 2c       	mov	r12, r1
     130:	d1 2c       	mov	r13, r1
     132:	0f 2e       	mov	r0, r31
     134:	f8 ec       	ldi	r31, 0xC8	; 200
     136:	ef 2e       	mov	r14, r31
     138:	f1 e0       	ldi	r31, 0x01	; 1
     13a:	ff 2e       	mov	r15, r31
     13c:	f0 2d       	mov	r31, r0
     13e:	8f 01       	movw	r16, r30
     140:	20 e0       	ldi	r18, 0x00	; 0
     142:	30 e0       	ldi	r19, 0x00	; 0
     144:	a9 01       	movw	r20, r18
     146:	60 e0       	ldi	r22, 0x00	; 0
     148:	70 e0       	ldi	r23, 0x00	; 0
     14a:	cb 01       	movw	r24, r22
     14c:	0e 94 0b 0e 	call	0x1c16	; 0x1c16 <async>
		}
	}
	
	//Right
	if ((PINE & rightMask) == 0){
     150:	63 99       	sbic	0x0c, 3	; 12
     152:	16 c0       	rjmp	.+44     	; 0x180 <joystickHorizontal+0x7a>
		if (current != 1){
     154:	aa 94       	dec	r10
     156:	ab 28       	or	r10, r11
     158:	99 f0       	breq	.+38     	; 0x180 <joystickHorizontal+0x7a>
			ASYNC(self->gui, changeCurrent, 1);
     15a:	08 85       	ldd	r16, Y+8	; 0x08
     15c:	19 85       	ldd	r17, Y+9	; 0x09
     15e:	cc 24       	eor	r12, r12
     160:	c3 94       	inc	r12
     162:	d1 2c       	mov	r13, r1
     164:	0f 2e       	mov	r0, r31
     166:	f8 ec       	ldi	r31, 0xC8	; 200
     168:	ef 2e       	mov	r14, r31
     16a:	f1 e0       	ldi	r31, 0x01	; 1
     16c:	ff 2e       	mov	r15, r31
     16e:	f0 2d       	mov	r31, r0
     170:	20 e0       	ldi	r18, 0x00	; 0
     172:	30 e0       	ldi	r19, 0x00	; 0
     174:	a9 01       	movw	r20, r18
     176:	60 e0       	ldi	r22, 0x00	; 0
     178:	70 e0       	ldi	r23, 0x00	; 0
     17a:	cb 01       	movw	r24, r22
     17c:	0e 94 0b 0e 	call	0x1c16	; 0x1c16 <async>
		}
	}
}
     180:	df 91       	pop	r29
     182:	cf 91       	pop	r28
     184:	1f 91       	pop	r17
     186:	0f 91       	pop	r16
     188:	ff 90       	pop	r15
     18a:	ef 90       	pop	r14
     18c:	df 90       	pop	r13
     18e:	cf 90       	pop	r12
     190:	bf 90       	pop	r11
     192:	af 90       	pop	r10
     194:	08 95       	ret

00000196 <joystickVerticalPressed>:

void joystickVerticalPressed(InputHandler *self){
     196:	cf 92       	push	r12
     198:	df 92       	push	r13
     19a:	ef 92       	push	r14
     19c:	ff 92       	push	r15
     19e:	0f 93       	push	r16
     1a0:	1f 93       	push	r17
     1a2:	cf 93       	push	r28
     1a4:	df 93       	push	r29
     1a6:	ec 01       	movw	r28, r24
	#define currentPG self->pG[self->gui->current]
	//Up
	if ((PINB & upMask) == 0){
     1a8:	1e 99       	sbic	0x03, 6	; 3
     1aa:	1d c0       	rjmp	.+58     	; 0x1e6 <joystickVerticalPressed+0x50>
		ASYNC(currentPG, changeFreq, 1);
     1ac:	e8 85       	ldd	r30, Y+8	; 0x08
     1ae:	f9 85       	ldd	r31, Y+9	; 0x09
     1b0:	04 80       	ldd	r0, Z+4	; 0x04
     1b2:	f5 81       	ldd	r31, Z+5	; 0x05
     1b4:	e0 2d       	mov	r30, r0
     1b6:	32 96       	adiw	r30, 0x02	; 2
     1b8:	ee 0f       	add	r30, r30
     1ba:	ff 1f       	adc	r31, r31
     1bc:	e8 0f       	add	r30, r24
     1be:	f9 1f       	adc	r31, r25
     1c0:	00 81       	ld	r16, Z
     1c2:	11 81       	ldd	r17, Z+1	; 0x01
     1c4:	cc 24       	eor	r12, r12
     1c6:	c3 94       	inc	r12
     1c8:	d1 2c       	mov	r13, r1
     1ca:	0f 2e       	mov	r0, r31
     1cc:	fa e4       	ldi	r31, 0x4A	; 74
     1ce:	ef 2e       	mov	r14, r31
     1d0:	f3 e0       	ldi	r31, 0x03	; 3
     1d2:	ff 2e       	mov	r15, r31
     1d4:	f0 2d       	mov	r31, r0
     1d6:	20 e0       	ldi	r18, 0x00	; 0
     1d8:	30 e0       	ldi	r19, 0x00	; 0
     1da:	a9 01       	movw	r20, r18
     1dc:	60 e0       	ldi	r22, 0x00	; 0
     1de:	70 e0       	ldi	r23, 0x00	; 0
     1e0:	cb 01       	movw	r24, r22
     1e2:	0e 94 0b 0e 	call	0x1c16	; 0x1c16 <async>
	}
	
	//Down
	if ((PINB & downMask) == 0){
     1e6:	1f 99       	sbic	0x03, 7	; 3
     1e8:	1d c0       	rjmp	.+58     	; 0x224 <__EEPROM_REGION_LENGTH__+0x24>
		ASYNC(currentPG, changeFreq, -1);
     1ea:	e8 85       	ldd	r30, Y+8	; 0x08
     1ec:	f9 85       	ldd	r31, Y+9	; 0x09
     1ee:	04 80       	ldd	r0, Z+4	; 0x04
     1f0:	f5 81       	ldd	r31, Z+5	; 0x05
     1f2:	e0 2d       	mov	r30, r0
     1f4:	32 96       	adiw	r30, 0x02	; 2
     1f6:	ee 0f       	add	r30, r30
     1f8:	ff 1f       	adc	r31, r31
     1fa:	ec 0f       	add	r30, r28
     1fc:	fd 1f       	adc	r31, r29
     1fe:	00 81       	ld	r16, Z
     200:	11 81       	ldd	r17, Z+1	; 0x01
     202:	cc 24       	eor	r12, r12
     204:	ca 94       	dec	r12
     206:	dc 2c       	mov	r13, r12
     208:	0f 2e       	mov	r0, r31
     20a:	fa e4       	ldi	r31, 0x4A	; 74
     20c:	ef 2e       	mov	r14, r31
     20e:	f3 e0       	ldi	r31, 0x03	; 3
     210:	ff 2e       	mov	r15, r31
     212:	f0 2d       	mov	r31, r0
     214:	20 e0       	ldi	r18, 0x00	; 0
     216:	30 e0       	ldi	r19, 0x00	; 0
     218:	a9 01       	movw	r20, r18
     21a:	60 e0       	ldi	r22, 0x00	; 0
     21c:	70 e0       	ldi	r23, 0x00	; 0
     21e:	cb 01       	movw	r24, r22
     220:	0e 94 0b 0e 	call	0x1c16	; 0x1c16 <async>
	}
	
	//Pressing
	if ((PINB & pressMask) == 0){
     224:	1c 99       	sbic	0x03, 4	; 3
     226:	1b c0       	rjmp	.+54     	; 0x25e <__EEPROM_REGION_LENGTH__+0x5e>
		ASYNC(currentPG, saveLoadFreq, NULL);
     228:	e8 85       	ldd	r30, Y+8	; 0x08
     22a:	f9 85       	ldd	r31, Y+9	; 0x09
     22c:	84 81       	ldd	r24, Z+4	; 0x04
     22e:	95 81       	ldd	r25, Z+5	; 0x05
     230:	02 96       	adiw	r24, 0x02	; 2
     232:	88 0f       	add	r24, r24
     234:	99 1f       	adc	r25, r25
     236:	c8 0f       	add	r28, r24
     238:	d9 1f       	adc	r29, r25
     23a:	08 81       	ld	r16, Y
     23c:	19 81       	ldd	r17, Y+1	; 0x01
     23e:	c1 2c       	mov	r12, r1
     240:	d1 2c       	mov	r13, r1
     242:	0f 2e       	mov	r0, r31
     244:	fd e8       	ldi	r31, 0x8D	; 141
     246:	ef 2e       	mov	r14, r31
     248:	f3 e0       	ldi	r31, 0x03	; 3
     24a:	ff 2e       	mov	r15, r31
     24c:	f0 2d       	mov	r31, r0
     24e:	20 e0       	ldi	r18, 0x00	; 0
     250:	30 e0       	ldi	r19, 0x00	; 0
     252:	a9 01       	movw	r20, r18
     254:	60 e0       	ldi	r22, 0x00	; 0
     256:	70 e0       	ldi	r23, 0x00	; 0
     258:	cb 01       	movw	r24, r22
     25a:	0e 94 0b 0e 	call	0x1c16	; 0x1c16 <async>
	}
	
     25e:	df 91       	pop	r29
     260:	cf 91       	pop	r28
     262:	1f 91       	pop	r17
     264:	0f 91       	pop	r16
     266:	ff 90       	pop	r15
     268:	ef 90       	pop	r14
     26a:	df 90       	pop	r13
     26c:	cf 90       	pop	r12
     26e:	08 95       	ret

00000270 <writeChar>:
#include <avr/io.h>
#include <avr/interrupt.h>
#include <stdbool.h>
#include "GUI.h"

void writeChar(char ch, int pos){
     270:	cf 93       	push	r28
     272:	df 93       	push	r29
     274:	cd b7       	in	r28, 0x3d	; 61
     276:	de b7       	in	r29, 0x3e	; 62
     278:	66 97       	sbiw	r28, 0x16	; 22
     27a:	0f b6       	in	r0, 0x3f	; 63
     27c:	f8 94       	cli
     27e:	de bf       	out	0x3e, r29	; 62
     280:	0f be       	out	0x3f, r0	; 63
     282:	cd bf       	out	0x3d, r28	; 61
	if (pos < 0 || pos > 5){
     284:	66 30       	cpi	r22, 0x06	; 6
     286:	71 05       	cpc	r23, r1
     288:	08 f0       	brcs	.+2      	; 0x28c <writeChar+0x1c>
     28a:	43 c0       	rjmp	.+134    	; 0x312 <writeChar+0xa2>

	//Initiate number to print;
	uint16_t num = 0x0;

	//Set SCC table to have the correct SCC values for the numbers 0-9 and a special character
	uint16_t tableSCC[11] = {0x1551, 0x0110, 0x1E11, 0x1B11, 0x0B50, 0x1B41, 0x1F41, 0x0111, 0x1F51, 0x0B51, 0xC028};
     28c:	96 e1       	ldi	r25, 0x16	; 22
     28e:	e8 e0       	ldi	r30, 0x08	; 8
     290:	f1 e0       	ldi	r31, 0x01	; 1
     292:	de 01       	movw	r26, r28
     294:	11 96       	adiw	r26, 0x01	; 1
     296:	01 90       	ld	r0, Z+
     298:	0d 92       	st	X+, r0
     29a:	9a 95       	dec	r25
     29c:	e1 f7       	brne	.-8      	; 0x296 <writeChar+0x26>

	//Check if the given character is in the interval 0-9 and set the right number value
	if (ch >= '0' && ch <= '9'){
     29e:	90 ed       	ldi	r25, 0xD0	; 208
     2a0:	98 0f       	add	r25, r24
     2a2:	9a 30       	cpi	r25, 0x0A	; 10
     2a4:	70 f4       	brcc	.+28     	; 0x2c2 <writeChar+0x52>
		//Set the corresponding value from the table to the number
		num = tableSCC[ch - '0'];
     2a6:	e8 2f       	mov	r30, r24
     2a8:	f0 e0       	ldi	r31, 0x00	; 0
     2aa:	f0 97       	sbiw	r30, 0x30	; 48
     2ac:	ee 0f       	add	r30, r30
     2ae:	ff 1f       	adc	r31, r31
     2b0:	81 e0       	ldi	r24, 0x01	; 1
     2b2:	90 e0       	ldi	r25, 0x00	; 0
     2b4:	8c 0f       	add	r24, r28
     2b6:	9d 1f       	adc	r25, r29
     2b8:	e8 0f       	add	r30, r24
     2ba:	f9 1f       	adc	r31, r25
     2bc:	40 81       	ld	r20, Z
     2be:	51 81       	ldd	r21, Z+1	; 0x01
     2c0:	02 c0       	rjmp	.+4      	; 0x2c6 <writeChar+0x56>
		} else {
		//Set the special character from the table to the number
		num = tableSCC[10];
     2c2:	48 e2       	ldi	r20, 0x28	; 40
     2c4:	50 ec       	ldi	r21, 0xC0	; 192
	}

	//Update the LCD address to the given position
	addrLCD += pos >> 1;
     2c6:	fb 01       	movw	r30, r22
     2c8:	f5 95       	asr	r31
     2ca:	e7 95       	ror	r30
     2cc:	e4 51       	subi	r30, 0x14	; 20
     2ce:	ff 4f       	sbci	r31, 0xFF	; 255

	//Set the correct mask if the position is even or odd
	if (pos % 2 == 0){
     2d0:	db 01       	movw	r26, r22
     2d2:	a1 70       	andi	r26, 0x01	; 1
     2d4:	bb 27       	eor	r27, r27
     2d6:	60 fd       	sbrc	r22, 0
     2d8:	02 c0       	rjmp	.+4      	; 0x2de <writeChar+0x6e>
		mask = 0xF0;
     2da:	60 ef       	ldi	r22, 0xF0	; 240
     2dc:	01 c0       	rjmp	.+2      	; 0x2e0 <writeChar+0x70>
		} else {
		mask = 0x0F;
     2de:	6f e0       	ldi	r22, 0x0F	; 15
	}

	//Place each of the four nibbles of the number on the LCD

	for (int i = 0; i < 4; i++){
     2e0:	20 e0       	ldi	r18, 0x00	; 0
     2e2:	30 e0       	ldi	r19, 0x00	; 0
     2e4:	13 c0       	rjmp	.+38     	; 0x30c <writeChar+0x9c>
		//Masking the smallest number to the current nibble
		nibbleNum = num & 0xF;
     2e6:	84 2f       	mov	r24, r20
     2e8:	8f 70       	andi	r24, 0x0F	; 15
		//Remove the used nibble
		num = num >> 4;
     2ea:	52 95       	swap	r21
     2ec:	42 95       	swap	r20
     2ee:	4f 70       	andi	r20, 0x0F	; 15
     2f0:	45 27       	eor	r20, r21
     2f2:	5f 70       	andi	r21, 0x0F	; 15
     2f4:	45 27       	eor	r20, r21

		//Shift the nibble to the right position if the pos is odd
		if (pos % 2 != 0){
     2f6:	10 97       	sbiw	r26, 0x00	; 0
     2f8:	11 f0       	breq	.+4      	; 0x2fe <writeChar+0x8e>
			nibbleNum = nibbleNum << 4;
     2fa:	82 95       	swap	r24
     2fc:	80 7f       	andi	r24, 0xF0	; 240
		}

		//Write the current nibble to the LCD
		*addrLCD = (*addrLCD & mask) | nibbleNum;
     2fe:	90 81       	ld	r25, Z
     300:	96 23       	and	r25, r22
     302:	89 2b       	or	r24, r25
     304:	80 83       	st	Z, r24

		//Move to the next nibble sequence of the current digit on the LCD
		addrLCD += 5;
     306:	35 96       	adiw	r30, 0x05	; 5
		mask = 0x0F;
	}

	//Place each of the four nibbles of the number on the LCD

	for (int i = 0; i < 4; i++){
     308:	2f 5f       	subi	r18, 0xFF	; 255
     30a:	3f 4f       	sbci	r19, 0xFF	; 255
     30c:	24 30       	cpi	r18, 0x04	; 4
     30e:	31 05       	cpc	r19, r1
     310:	54 f3       	brlt	.-44     	; 0x2e6 <writeChar+0x76>
		*addrLCD = (*addrLCD & mask) | nibbleNum;

		//Move to the next nibble sequence of the current digit on the LCD
		addrLCD += 5;
	}
}
     312:	66 96       	adiw	r28, 0x16	; 22
     314:	0f b6       	in	r0, 0x3f	; 63
     316:	f8 94       	cli
     318:	de bf       	out	0x3e, r29	; 62
     31a:	0f be       	out	0x3f, r0	; 63
     31c:	cd bf       	out	0x3d, r28	; 61
     31e:	df 91       	pop	r29
     320:	cf 91       	pop	r28
     322:	08 95       	ret

00000324 <printAt>:

void printAt(int pos, int num) {
     324:	ef 92       	push	r14
     326:	ff 92       	push	r15
     328:	0f 93       	push	r16
     32a:	1f 93       	push	r17
     32c:	cf 93       	push	r28
     32e:	df 93       	push	r29
     330:	ec 01       	movw	r28, r24
     332:	7b 01       	movw	r14, r22
	writeChar( (num % 100) / 10 + '0', pos);
     334:	cb 01       	movw	r24, r22
     336:	64 e6       	ldi	r22, 0x64	; 100
     338:	70 e0       	ldi	r23, 0x00	; 0
     33a:	0e 94 54 10 	call	0x20a8	; 0x20a8 <__divmodhi4>
     33e:	0a e0       	ldi	r16, 0x0A	; 10
     340:	10 e0       	ldi	r17, 0x00	; 0
     342:	b8 01       	movw	r22, r16
     344:	0e 94 54 10 	call	0x20a8	; 0x20a8 <__divmodhi4>
     348:	86 2f       	mov	r24, r22
     34a:	be 01       	movw	r22, r28
     34c:	80 5d       	subi	r24, 0xD0	; 208
     34e:	0e 94 38 01 	call	0x270	; 0x270 <writeChar>
	pos++;
     352:	21 96       	adiw	r28, 0x01	; 1
	writeChar( num % 10 + '0', pos);
     354:	c7 01       	movw	r24, r14
     356:	b8 01       	movw	r22, r16
     358:	0e 94 54 10 	call	0x20a8	; 0x20a8 <__divmodhi4>
     35c:	be 01       	movw	r22, r28
     35e:	80 5d       	subi	r24, 0xD0	; 208
     360:	0e 94 38 01 	call	0x270	; 0x270 <writeChar>
}
     364:	df 91       	pop	r29
     366:	cf 91       	pop	r28
     368:	1f 91       	pop	r17
     36a:	0f 91       	pop	r16
     36c:	ff 90       	pop	r15
     36e:	ef 90       	pop	r14
     370:	08 95       	ret

00000372 <printCurrent>:
	self->current = arg;
	printCurrent(self);
}

void printCurrent(GUI *self){
	if (self->current == 0){
     372:	fc 01       	movw	r30, r24
     374:	84 81       	ldd	r24, Z+4	; 0x04
     376:	95 81       	ldd	r25, Z+5	; 0x05
     378:	00 97       	sbiw	r24, 0x00	; 0
     37a:	21 f4       	brne	.+8      	; 0x384 <printCurrent+0x12>
		LCDDR1 = (1 << 0);
     37c:	81 e0       	ldi	r24, 0x01	; 1
     37e:	80 93 ed 00 	sts	0x00ED, r24	; 0x8000ed <__TEXT_REGION_LENGTH__+0x7fc0ed>
     382:	08 95       	ret
	} else if (self->current == 1){
     384:	01 97       	sbiw	r24, 0x01	; 1
     386:	19 f4       	brne	.+6      	; 0x38e <printCurrent+0x1c>
		LCDDR1 = (1 << 4);
     388:	80 e1       	ldi	r24, 0x10	; 16
     38a:	80 93 ed 00 	sts	0x00ED, r24	; 0x8000ed <__TEXT_REGION_LENGTH__+0x7fc0ed>
     38e:	08 95       	ret

00000390 <changeCurrent>:
	pos++;
	writeChar( num % 10 + '0', pos);
}

void changeCurrent(GUI *self, int arg){
	self->current = arg;
     390:	fc 01       	movw	r30, r24
     392:	75 83       	std	Z+5, r23	; 0x05
     394:	64 83       	std	Z+4, r22	; 0x04
	printCurrent(self);
     396:	0e 94 b9 01 	call	0x372	; 0x372 <printCurrent>
     39a:	08 95       	ret

0000039c <updateDisplayedFreq>:
		LCDDR1 = (1 << 4);
	}
}

void updateDisplayedFreq(GUI *self, int freq){
	int current = self->current;
     39c:	fc 01       	movw	r30, r24
     39e:	84 81       	ldd	r24, Z+4	; 0x04
     3a0:	95 81       	ldd	r25, Z+5	; 0x05
	
	int pos = 2;
	if (current == 0){
     3a2:	00 97       	sbiw	r24, 0x00	; 0
     3a4:	29 f0       	breq	.+10     	; 0x3b0 <updateDisplayedFreq+0x14>
		pos = 0;
	} else if (current == 1) {
     3a6:	01 97       	sbiw	r24, 0x01	; 1
     3a8:	31 f0       	breq	.+12     	; 0x3b6 <updateDisplayedFreq+0x1a>
}

void updateDisplayedFreq(GUI *self, int freq){
	int current = self->current;
	
	int pos = 2;
     3aa:	82 e0       	ldi	r24, 0x02	; 2
     3ac:	90 e0       	ldi	r25, 0x00	; 0
     3ae:	05 c0       	rjmp	.+10     	; 0x3ba <updateDisplayedFreq+0x1e>
	if (current == 0){
		pos = 0;
     3b0:	80 e0       	ldi	r24, 0x00	; 0
     3b2:	90 e0       	ldi	r25, 0x00	; 0
     3b4:	02 c0       	rjmp	.+4      	; 0x3ba <updateDisplayedFreq+0x1e>
	} else if (current == 1) {
		pos = 4;
     3b6:	84 e0       	ldi	r24, 0x04	; 4
     3b8:	90 e0       	ldi	r25, 0x00	; 0
	}
	printAt(pos, freq);
     3ba:	0e 94 92 01 	call	0x324	; 0x324 <printAt>
     3be:	08 95       	ret

000003c0 <initLCD>:
}

 void initLCD(void){
	 // LCD
	 CLKPR = 0x80;
     3c0:	e1 e6       	ldi	r30, 0x61	; 97
     3c2:	f0 e0       	ldi	r31, 0x00	; 0
     3c4:	80 e8       	ldi	r24, 0x80	; 128
     3c6:	80 83       	st	Z, r24
	 CLKPR = 0x00;
     3c8:	10 82       	st	Z, r1
	 
	 //Set drive time to 300 milliseconds and contrast control voltage to 3.35 V
	 LCDCCR = (1 << LCDCC3) | (1 << LCDCC2) | (1 << LCDCC1) | (1 << LCDCC0);
     3ca:	8f e0       	ldi	r24, 0x0F	; 15
     3cc:	80 93 e7 00 	sts	0x00E7, r24	; 0x8000e7 <__TEXT_REGION_LENGTH__+0x7fc0e7>
	 
	 //Set external clock source, 1/3 bias, 1/4 duty cycle, 25 segments
	 LCDCRB = (1 << LCDCS) | (1 << LCDMUX1) | (1 << LCDMUX0) | (1 << LCDPM2) | (1 << LCDPM1) | (1 << LCDPM0);
     3d0:	87 eb       	ldi	r24, 0xB7	; 183
     3d2:	80 93 e5 00 	sts	0x00E5, r24	; 0x8000e5 <__TEXT_REGION_LENGTH__+0x7fc0e5>

	 //Set prescaler setting N=16 and clock divide settings D=8
	 LCDFRR = (1 << LCDCD2) | (1 << LCDCD1) | (1 << LCDCD0);
     3d6:	87 e0       	ldi	r24, 0x07	; 7
     3d8:	80 93 e6 00 	sts	0x00E6, r24	; 0x8000e6 <__TEXT_REGION_LENGTH__+0x7fc0e6>

	 //Enable low power waveform, no frame interrupt, no blanking, LCD enable
	 LCDCRA = (1 << LCDAB) | (1 << LCDEN);
     3dc:	80 ec       	ldi	r24, 0xC0	; 192
     3de:	80 93 e4 00 	sts	0x00E4, r24	; 0x8000e4 <__TEXT_REGION_LENGTH__+0x7fc0e4>
	 
	 LCDDR1 = (1 << 0);
     3e2:	81 e0       	ldi	r24, 0x01	; 1
     3e4:	80 93 ed 00 	sts	0x00ED, r24	; 0x8000ed <__TEXT_REGION_LENGTH__+0x7fc0ed>
	 writeChar('0', 0);
     3e8:	60 e0       	ldi	r22, 0x00	; 0
     3ea:	70 e0       	ldi	r23, 0x00	; 0
     3ec:	80 e3       	ldi	r24, 0x30	; 48
     3ee:	0e 94 38 01 	call	0x270	; 0x270 <writeChar>
	 writeChar('0', 1);
     3f2:	61 e0       	ldi	r22, 0x01	; 1
     3f4:	70 e0       	ldi	r23, 0x00	; 0
     3f6:	80 e3       	ldi	r24, 0x30	; 48
     3f8:	0e 94 38 01 	call	0x270	; 0x270 <writeChar>
	 writeChar('0', 4);
     3fc:	64 e0       	ldi	r22, 0x04	; 4
     3fe:	70 e0       	ldi	r23, 0x00	; 0
     400:	80 e3       	ldi	r24, 0x30	; 48
     402:	0e 94 38 01 	call	0x270	; 0x270 <writeChar>
	 writeChar('0', 5);
     406:	65 e0       	ldi	r22, 0x05	; 5
     408:	70 e0       	ldi	r23, 0x00	; 0
     40a:	80 e3       	ldi	r24, 0x30	; 48
     40c:	0e 94 38 01 	call	0x270	; 0x270 <writeChar>
     410:	08 95       	ret

00000412 <initButtons>:
 }
 
 void initButtons(void){
	 //Initialize for butterfly joystick
	 EIMSK = (1<<PCIE1) | (1<<PCIE0) | EIMSK;
     412:	8d b3       	in	r24, 0x1d	; 29
     414:	80 6c       	ori	r24, 0xC0	; 192
     416:	8d bb       	out	0x1d, r24	; 29
	 
	 //Press down
	 PORTB = (1<<PB7) | PORTB;
     418:	85 b1       	in	r24, 0x05	; 5
     41a:	80 68       	ori	r24, 0x80	; 128
     41c:	85 b9       	out	0x05, r24	; 5
	 PCMSK1 = (1<<PCINT15) | PCMSK1;
     41e:	ec e6       	ldi	r30, 0x6C	; 108
     420:	f0 e0       	ldi	r31, 0x00	; 0
     422:	80 81       	ld	r24, Z
     424:	80 68       	ori	r24, 0x80	; 128
     426:	80 83       	st	Z, r24
	 
	 //Press  upp
	 PORTB = (1<<PB6) | PORTB;
     428:	85 b1       	in	r24, 0x05	; 5
     42a:	80 64       	ori	r24, 0x40	; 64
     42c:	85 b9       	out	0x05, r24	; 5
	 PCMSK1 = (1<<PCINT14) | PCMSK1;
     42e:	80 81       	ld	r24, Z
     430:	80 64       	ori	r24, 0x40	; 64
     432:	80 83       	st	Z, r24
	 
	 //Press right
	 PORTE = (1<<PE3) | PORTE;
     434:	8e b1       	in	r24, 0x0e	; 14
     436:	88 60       	ori	r24, 0x08	; 8
     438:	8e b9       	out	0x0e, r24	; 14
	 PCMSK0 = (1<<PCINT3) | PCMSK0;
     43a:	ab e6       	ldi	r26, 0x6B	; 107
     43c:	b0 e0       	ldi	r27, 0x00	; 0
     43e:	8c 91       	ld	r24, X
     440:	88 60       	ori	r24, 0x08	; 8
     442:	8c 93       	st	X, r24
	 
	 //Press left
	 PORTE = (1<<PE2) | PORTE;
     444:	8e b1       	in	r24, 0x0e	; 14
     446:	84 60       	ori	r24, 0x04	; 4
     448:	8e b9       	out	0x0e, r24	; 14
	 PCMSK0 = (1<<PCINT2) | PCMSK0;
     44a:	8c 91       	ld	r24, X
     44c:	84 60       	ori	r24, 0x04	; 4
     44e:	8c 93       	st	X, r24
	 
	 //Press in
	 PORTB = (1<<PB4) | PORTB;
     450:	85 b1       	in	r24, 0x05	; 5
     452:	80 61       	ori	r24, 0x10	; 16
     454:	85 b9       	out	0x05, r24	; 5
	 PCMSK1 = (1<<PCINT12) | PCMSK1;
     456:	80 81       	ld	r24, Z
     458:	80 61       	ori	r24, 0x10	; 16
     45a:	80 83       	st	Z, r24
     45c:	08 95       	ret

0000045e <init>:
 }
 
 void init(void){
	 //Set Port E, pin 4 and 6 to output
	 DDRE   = (1<<DDE6)|(1<<DDE4);
     45e:	80 e5       	ldi	r24, 0x50	; 80
     460:	8d b9       	out	0x0d, r24	; 13
	 
	 initLCD();
     462:	0e 94 e0 01 	call	0x3c0	; 0x3c0 <initLCD>
	 initButtons();
     466:	0e 94 09 02 	call	0x412	; 0x412 <initButtons>
     46a:	08 95       	ret

0000046c <main>:
#include "InputHandler.h"



int main(void)
{
     46c:	cf 93       	push	r28
     46e:	df 93       	push	r29
     470:	cd b7       	in	r28, 0x3d	; 61
     472:	de b7       	in	r29, 0x3e	; 62
     474:	e4 97       	sbiw	r28, 0x34	; 52
     476:	0f b6       	in	r0, 0x3f	; 63
     478:	f8 94       	cli
     47a:	de bf       	out	0x3e, r29	; 62
     47c:	0f be       	out	0x3f, r0	; 63
     47e:	cd bf       	out	0x3d, r28	; 61
	PortWriter		portWriter	 = initPortWriter();
     480:	1a 82       	std	Y+2, r1	; 0x02
     482:	19 82       	std	Y+1, r1	; 0x01
     484:	1c 82       	std	Y+4, r1	; 0x04
     486:	1b 82       	std	Y+3, r1	; 0x03
	GUI				gui			 = initGUI();
     488:	1e 82       	std	Y+6, r1	; 0x06
     48a:	1d 82       	std	Y+5, r1	; 0x05
     48c:	18 86       	std	Y+8, r1	; 0x08
     48e:	1f 82       	std	Y+7, r1	; 0x07
     490:	1a 86       	std	Y+10, r1	; 0x0a
     492:	19 86       	std	Y+9, r1	; 0x09
	PulseGenerator	pG1		 = initPulseGenerator(&portWriter, &gui, 4, 80);
     494:	1c 86       	std	Y+12, r1	; 0x0c
     496:	1b 86       	std	Y+11, r1	; 0x0b
     498:	1e 86       	std	Y+14, r1	; 0x0e
     49a:	1d 86       	std	Y+13, r1	; 0x0d
     49c:	ae 01       	movw	r20, r28
     49e:	4f 5f       	subi	r20, 0xFF	; 255
     4a0:	5f 4f       	sbci	r21, 0xFF	; 255
     4a2:	58 8b       	std	Y+16, r21	; 0x10
     4a4:	4f 87       	std	Y+15, r20	; 0x0f
     4a6:	ce 01       	movw	r24, r28
     4a8:	05 96       	adiw	r24, 0x05	; 5
     4aa:	9a 8b       	std	Y+18, r25	; 0x12
     4ac:	89 8b       	std	Y+17, r24	; 0x11
     4ae:	24 e0       	ldi	r18, 0x04	; 4
     4b0:	30 e0       	ldi	r19, 0x00	; 0
     4b2:	3c 8b       	std	Y+20, r19	; 0x14
     4b4:	2b 8b       	std	Y+19, r18	; 0x13
     4b6:	1e 8a       	std	Y+22, r1	; 0x16
     4b8:	1d 8a       	std	Y+21, r1	; 0x15
     4ba:	20 e5       	ldi	r18, 0x50	; 80
     4bc:	30 e0       	ldi	r19, 0x00	; 0
     4be:	38 8f       	std	Y+24, r19	; 0x18
     4c0:	2f 8b       	std	Y+23, r18	; 0x17
     4c2:	1a 8e       	std	Y+26, r1	; 0x1a
     4c4:	19 8e       	std	Y+25, r1	; 0x19
	PulseGenerator	pG2		 = initPulseGenerator(&portWriter, &gui, 6, 80);
     4c6:	1c 8e       	std	Y+28, r1	; 0x1c
     4c8:	1b 8e       	std	Y+27, r1	; 0x1b
     4ca:	1e 8e       	std	Y+30, r1	; 0x1e
     4cc:	1d 8e       	std	Y+29, r1	; 0x1d
     4ce:	58 a3       	std	Y+32, r21	; 0x20
     4d0:	4f 8f       	std	Y+31, r20	; 0x1f
     4d2:	9a a3       	std	Y+34, r25	; 0x22
     4d4:	89 a3       	std	Y+33, r24	; 0x21
     4d6:	46 e0       	ldi	r20, 0x06	; 6
     4d8:	50 e0       	ldi	r21, 0x00	; 0
     4da:	5c a3       	std	Y+36, r21	; 0x24
     4dc:	4b a3       	std	Y+35, r20	; 0x23
     4de:	1e a2       	std	Y+38, r1	; 0x26
     4e0:	1d a2       	std	Y+37, r1	; 0x25
     4e2:	38 a7       	std	Y+40, r19	; 0x28
     4e4:	2f a3       	std	Y+39, r18	; 0x27
     4e6:	1a a6       	std	Y+42, r1	; 0x2a
     4e8:	19 a6       	std	Y+41, r1	; 0x29
	InputHandler	inputHandler = initInputHandler(&pG1, &pG2, &gui);
     4ea:	1c a6       	std	Y+44, r1	; 0x2c
     4ec:	1b a6       	std	Y+43, r1	; 0x2b
     4ee:	1e a6       	std	Y+46, r1	; 0x2e
     4f0:	1d a6       	std	Y+45, r1	; 0x2d
     4f2:	9e 01       	movw	r18, r28
     4f4:	25 5f       	subi	r18, 0xF5	; 245
     4f6:	3f 4f       	sbci	r19, 0xFF	; 255
     4f8:	38 ab       	std	Y+48, r19	; 0x30
     4fa:	2f a7       	std	Y+47, r18	; 0x2f
     4fc:	20 5f       	subi	r18, 0xF0	; 240
     4fe:	3f 4f       	sbci	r19, 0xFF	; 255
     500:	3a ab       	std	Y+50, r19	; 0x32
     502:	29 ab       	std	Y+49, r18	; 0x31
     504:	9c ab       	std	Y+52, r25	; 0x34
     506:	8b ab       	std	Y+51, r24	; 0x33
	
	INSTALL(&inputHandler, joystickHorizontal, IRQ_PCINT0);	// Left & Right
     508:	41 e0       	ldi	r20, 0x01	; 1
     50a:	63 e8       	ldi	r22, 0x83	; 131
     50c:	70 e0       	ldi	r23, 0x00	; 0
     50e:	86 96       	adiw	r24, 0x26	; 38
     510:	0e 94 ee 0f 	call	0x1fdc	; 0x1fdc <install>
	INSTALL(&inputHandler, joystickVerticalPressed, IRQ_PCINT1);	// Up, Down & Pressed
     514:	42 e0       	ldi	r20, 0x02	; 2
     516:	6b ec       	ldi	r22, 0xCB	; 203
     518:	70 e0       	ldi	r23, 0x00	; 0
     51a:	ce 01       	movw	r24, r28
     51c:	8b 96       	adiw	r24, 0x2b	; 43
     51e:	0e 94 ee 0f 	call	0x1fdc	; 0x1fdc <install>
	
	return TINYTIMBER(&inputHandler, initialize, NULL);
     522:	40 e0       	ldi	r20, 0x00	; 0
     524:	50 e0       	ldi	r21, 0x00	; 0
     526:	6d e4       	ldi	r22, 0x4D	; 77
     528:	70 e0       	ldi	r23, 0x00	; 0
     52a:	ce 01       	movw	r24, r28
     52c:	8b 96       	adiw	r24, 0x2b	; 43
     52e:	0e 94 09 10 	call	0x2012	; 0x2012 <tinytimber>
     532:	e4 96       	adiw	r28, 0x34	; 52
     534:	0f b6       	in	r0, 0x3f	; 63
     536:	f8 94       	cli
     538:	de bf       	out	0x3e, r29	; 62
     53a:	0f be       	out	0x3f, r0	; 63
     53c:	cd bf       	out	0x3d, r28	; 61
     53e:	df 91       	pop	r29
     540:	cf 91       	pop	r28
     542:	08 95       	ret

00000544 <generatePulse>:
 */ 

#include "PulseGenerator.h"
#include <avr/io.h>

void generatePulse(PulseGenerator *self){
     544:	cf 92       	push	r12
     546:	df 92       	push	r13
     548:	ef 92       	push	r14
     54a:	ff 92       	push	r15
     54c:	0f 93       	push	r16
     54e:	1f 93       	push	r17
     550:	cf 93       	push	r28
     552:	df 93       	push	r29
     554:	ec 01       	movw	r28, r24
	if (self->savedFreq == 0){
     556:	8c 85       	ldd	r24, Y+12	; 0x0c
     558:	9d 85       	ldd	r25, Y+13	; 0x0d
     55a:	89 2b       	or	r24, r25
     55c:	29 f5       	brne	.+74     	; 0x5a8 <generatePulse+0x64>
		ASYNC(self->pw, turnOffPin, self->pin);
     55e:	0c 81       	ldd	r16, Y+4	; 0x04
     560:	1d 81       	ldd	r17, Y+5	; 0x05
     562:	c8 84       	ldd	r12, Y+8	; 0x08
     564:	d9 84       	ldd	r13, Y+9	; 0x09
     566:	0f 2e       	mov	r0, r31
     568:	fb e2       	ldi	r31, 0x2B	; 43
     56a:	ef 2e       	mov	r14, r31
     56c:	f0 e1       	ldi	r31, 0x10	; 16
     56e:	ff 2e       	mov	r15, r31
     570:	f0 2d       	mov	r31, r0
     572:	20 e0       	ldi	r18, 0x00	; 0
     574:	30 e0       	ldi	r19, 0x00	; 0
     576:	a9 01       	movw	r20, r18
     578:	60 e0       	ldi	r22, 0x00	; 0
     57a:	70 e0       	ldi	r23, 0x00	; 0
     57c:	cb 01       	movw	r24, r22
     57e:	0e 94 0b 0e 	call	0x1c16	; 0x1c16 <async>
		AFTER(MSEC(500), self, generatePulse, NULL);
     582:	c1 2c       	mov	r12, r1
     584:	d1 2c       	mov	r13, r1
     586:	0f 2e       	mov	r0, r31
     588:	f2 ea       	ldi	r31, 0xA2	; 162
     58a:	ef 2e       	mov	r14, r31
     58c:	f2 e0       	ldi	r31, 0x02	; 2
     58e:	ff 2e       	mov	r15, r31
     590:	f0 2d       	mov	r31, r0
     592:	8e 01       	movw	r16, r28
     594:	20 e0       	ldi	r18, 0x00	; 0
     596:	30 e0       	ldi	r19, 0x00	; 0
     598:	a9 01       	movw	r20, r18
     59a:	69 e0       	ldi	r22, 0x09	; 9
     59c:	7d e3       	ldi	r23, 0x3D	; 61
     59e:	80 e0       	ldi	r24, 0x00	; 0
     5a0:	90 e0       	ldi	r25, 0x00	; 0
     5a2:	0e 94 0b 0e 	call	0x1c16	; 0x1c16 <async>
     5a6:	38 c0       	rjmp	.+112    	; 0x618 <generatePulse+0xd4>
	} else {
		ASYNC(self->pw, invertPin, self->pin);
     5a8:	0c 81       	ldd	r16, Y+4	; 0x04
     5aa:	1d 81       	ldd	r17, Y+5	; 0x05
     5ac:	c8 84       	ldd	r12, Y+8	; 0x08
     5ae:	d9 84       	ldd	r13, Y+9	; 0x09
     5b0:	0f 2e       	mov	r0, r31
     5b2:	fc e3       	ldi	r31, 0x3C	; 60
     5b4:	ef 2e       	mov	r14, r31
     5b6:	f0 e1       	ldi	r31, 0x10	; 16
     5b8:	ff 2e       	mov	r15, r31
     5ba:	f0 2d       	mov	r31, r0
     5bc:	20 e0       	ldi	r18, 0x00	; 0
     5be:	30 e0       	ldi	r19, 0x00	; 0
     5c0:	a9 01       	movw	r20, r18
     5c2:	60 e0       	ldi	r22, 0x00	; 0
     5c4:	70 e0       	ldi	r23, 0x00	; 0
     5c6:	cb 01       	movw	r24, r22
     5c8:	0e 94 0b 0e 	call	0x1c16	; 0x1c16 <async>
		AFTER(USEC(500000/self->savedFreq), self, generatePulse, NULL);
     5cc:	2c 85       	ldd	r18, Y+12	; 0x0c
     5ce:	3d 85       	ldd	r19, Y+13	; 0x0d
     5d0:	03 2e       	mov	r0, r19
     5d2:	00 0c       	add	r0, r0
     5d4:	44 0b       	sbc	r20, r20
     5d6:	55 0b       	sbc	r21, r21
     5d8:	60 e2       	ldi	r22, 0x20	; 32
     5da:	71 ea       	ldi	r23, 0xA1	; 161
     5dc:	87 e0       	ldi	r24, 0x07	; 7
     5de:	90 e0       	ldi	r25, 0x00	; 0
     5e0:	0e 94 68 10 	call	0x20d0	; 0x20d0 <__divmodsi4>
     5e4:	ad e7       	ldi	r26, 0x7D	; 125
     5e6:	b0 e0       	ldi	r27, 0x00	; 0
     5e8:	0e 94 87 10 	call	0x210e	; 0x210e <__muluhisi3>
     5ec:	20 ea       	ldi	r18, 0xA0	; 160
     5ee:	3f e0       	ldi	r19, 0x0F	; 15
     5f0:	40 e0       	ldi	r20, 0x00	; 0
     5f2:	50 e0       	ldi	r21, 0x00	; 0
     5f4:	0e 94 68 10 	call	0x20d0	; 0x20d0 <__divmodsi4>
     5f8:	ca 01       	movw	r24, r20
     5fa:	b9 01       	movw	r22, r18
     5fc:	c1 2c       	mov	r12, r1
     5fe:	d1 2c       	mov	r13, r1
     600:	0f 2e       	mov	r0, r31
     602:	f2 ea       	ldi	r31, 0xA2	; 162
     604:	ef 2e       	mov	r14, r31
     606:	f2 e0       	ldi	r31, 0x02	; 2
     608:	ff 2e       	mov	r15, r31
     60a:	f0 2d       	mov	r31, r0
     60c:	8e 01       	movw	r16, r28
     60e:	20 e0       	ldi	r18, 0x00	; 0
     610:	30 e0       	ldi	r19, 0x00	; 0
     612:	a9 01       	movw	r20, r18
     614:	0e 94 0b 0e 	call	0x1c16	; 0x1c16 <async>
	}
}
     618:	df 91       	pop	r29
     61a:	cf 91       	pop	r28
     61c:	1f 91       	pop	r17
     61e:	0f 91       	pop	r16
     620:	ff 90       	pop	r15
     622:	ef 90       	pop	r14
     624:	df 90       	pop	r13
     626:	cf 90       	pop	r12
     628:	08 95       	ret

0000062a <checkContinous>:

void checkContinous(PulseGenerator *self, int value){
     62a:	cf 92       	push	r12
     62c:	df 92       	push	r13
     62e:	ef 92       	push	r14
     630:	ff 92       	push	r15
     632:	0f 93       	push	r16
     634:	1f 93       	push	r17
	if (value == 1){
     636:	61 30       	cpi	r22, 0x01	; 1
     638:	71 05       	cpc	r23, r1
     63a:	99 f4       	brne	.+38     	; 0x662 <checkContinous+0x38>
		if ((PINB & upMask) == 0){
     63c:	1e 99       	sbic	0x03, 6	; 3
     63e:	23 c0       	rjmp	.+70     	; 0x686 <checkContinous+0x5c>
			ASYNC(self, changeFreq, value);
     640:	6b 01       	movw	r12, r22
     642:	0f 2e       	mov	r0, r31
     644:	fa e4       	ldi	r31, 0x4A	; 74
     646:	ef 2e       	mov	r14, r31
     648:	f3 e0       	ldi	r31, 0x03	; 3
     64a:	ff 2e       	mov	r15, r31
     64c:	f0 2d       	mov	r31, r0
     64e:	8c 01       	movw	r16, r24
     650:	20 e0       	ldi	r18, 0x00	; 0
     652:	30 e0       	ldi	r19, 0x00	; 0
     654:	a9 01       	movw	r20, r18
     656:	60 e0       	ldi	r22, 0x00	; 0
     658:	70 e0       	ldi	r23, 0x00	; 0
     65a:	cb 01       	movw	r24, r22
     65c:	0e 94 0b 0e 	call	0x1c16	; 0x1c16 <async>
     660:	12 c0       	rjmp	.+36     	; 0x686 <checkContinous+0x5c>
			//AFTER(MSEC(waitTime), self, checkContinous, true);
		}
	} else {
		if ((PINB & downMask) == 0){
     662:	1f 99       	sbic	0x03, 7	; 3
     664:	10 c0       	rjmp	.+32     	; 0x686 <checkContinous+0x5c>
			ASYNC(self, changeFreq, value);
     666:	6b 01       	movw	r12, r22
     668:	0f 2e       	mov	r0, r31
     66a:	fa e4       	ldi	r31, 0x4A	; 74
     66c:	ef 2e       	mov	r14, r31
     66e:	f3 e0       	ldi	r31, 0x03	; 3
     670:	ff 2e       	mov	r15, r31
     672:	f0 2d       	mov	r31, r0
     674:	8c 01       	movw	r16, r24
     676:	20 e0       	ldi	r18, 0x00	; 0
     678:	30 e0       	ldi	r19, 0x00	; 0
     67a:	a9 01       	movw	r20, r18
     67c:	60 e0       	ldi	r22, 0x00	; 0
     67e:	70 e0       	ldi	r23, 0x00	; 0
     680:	cb 01       	movw	r24, r22
     682:	0e 94 0b 0e 	call	0x1c16	; 0x1c16 <async>
			//AFTER(MSEC(waitTime), self, checkContinous, false);
		}
	}
}
     686:	1f 91       	pop	r17
     688:	0f 91       	pop	r16
     68a:	ff 90       	pop	r15
     68c:	ef 90       	pop	r14
     68e:	df 90       	pop	r13
     690:	cf 90       	pop	r12
     692:	08 95       	ret

00000694 <changeFreq>:

void changeFreq(PulseGenerator *self, int value){
     694:	af 92       	push	r10
     696:	bf 92       	push	r11
     698:	cf 92       	push	r12
     69a:	df 92       	push	r13
     69c:	ef 92       	push	r14
     69e:	ff 92       	push	r15
     6a0:	0f 93       	push	r16
     6a2:	1f 93       	push	r17
     6a4:	cf 93       	push	r28
     6a6:	df 93       	push	r29
	if ((self->freq + value) >= 0 && (self->freq + value) <= 99){
     6a8:	fc 01       	movw	r30, r24
     6aa:	c2 84       	ldd	r12, Z+10	; 0x0a
     6ac:	d3 84       	ldd	r13, Z+11	; 0x0b
     6ae:	c6 0e       	add	r12, r22
     6b0:	d7 1e       	adc	r13, r23
     6b2:	f4 e6       	ldi	r31, 0x64	; 100
     6b4:	cf 16       	cp	r12, r31
     6b6:	d1 04       	cpc	r13, r1
     6b8:	28 f5       	brcc	.+74     	; 0x704 <changeFreq+0x70>
     6ba:	5b 01       	movw	r10, r22
     6bc:	ec 01       	movw	r28, r24
		self->freq = self->freq + value;
     6be:	db 86       	std	Y+11, r13	; 0x0b
     6c0:	ca 86       	std	Y+10, r12	; 0x0a
		ASYNC(self->gui, updateDisplayedFreq, self->freq);
     6c2:	0e 81       	ldd	r16, Y+6	; 0x06
     6c4:	1f 81       	ldd	r17, Y+7	; 0x07
     6c6:	0f 2e       	mov	r0, r31
     6c8:	fe ec       	ldi	r31, 0xCE	; 206
     6ca:	ef 2e       	mov	r14, r31
     6cc:	f1 e0       	ldi	r31, 0x01	; 1
     6ce:	ff 2e       	mov	r15, r31
     6d0:	f0 2d       	mov	r31, r0
     6d2:	20 e0       	ldi	r18, 0x00	; 0
     6d4:	30 e0       	ldi	r19, 0x00	; 0
     6d6:	a9 01       	movw	r20, r18
     6d8:	60 e0       	ldi	r22, 0x00	; 0
     6da:	70 e0       	ldi	r23, 0x00	; 0
     6dc:	cb 01       	movw	r24, r22
     6de:	0e 94 0b 0e 	call	0x1c16	; 0x1c16 <async>
		AFTER(MSEC(waitTime), self, checkContinous, value);
     6e2:	65 01       	movw	r12, r10
     6e4:	0f 2e       	mov	r0, r31
     6e6:	f5 e1       	ldi	r31, 0x15	; 21
     6e8:	ef 2e       	mov	r14, r31
     6ea:	f3 e0       	ldi	r31, 0x03	; 3
     6ec:	ff 2e       	mov	r15, r31
     6ee:	f0 2d       	mov	r31, r0
     6f0:	8e 01       	movw	r16, r28
     6f2:	20 e0       	ldi	r18, 0x00	; 0
     6f4:	30 e0       	ldi	r19, 0x00	; 0
     6f6:	a9 01       	movw	r20, r18
     6f8:	6f e4       	ldi	r22, 0x4F	; 79
     6fa:	72 e1       	ldi	r23, 0x12	; 18
     6fc:	80 e0       	ldi	r24, 0x00	; 0
     6fe:	90 e0       	ldi	r25, 0x00	; 0
     700:	0e 94 0b 0e 	call	0x1c16	; 0x1c16 <async>
	}
}
     704:	df 91       	pop	r29
     706:	cf 91       	pop	r28
     708:	1f 91       	pop	r17
     70a:	0f 91       	pop	r16
     70c:	ff 90       	pop	r15
     70e:	ef 90       	pop	r14
     710:	df 90       	pop	r13
     712:	cf 90       	pop	r12
     714:	bf 90       	pop	r11
     716:	af 90       	pop	r10
     718:	08 95       	ret

0000071a <saveLoadFreq>:

void saveLoadFreq(PulseGenerator *self){
     71a:	cf 92       	push	r12
     71c:	df 92       	push	r13
     71e:	ef 92       	push	r14
     720:	ff 92       	push	r15
     722:	0f 93       	push	r16
     724:	1f 93       	push	r17
     726:	fc 01       	movw	r30, r24
	if (self->freq == 0){
     728:	82 85       	ldd	r24, Z+10	; 0x0a
     72a:	93 85       	ldd	r25, Z+11	; 0x0b
     72c:	00 97       	sbiw	r24, 0x00	; 0
     72e:	29 f4       	brne	.+10     	; 0x73a <saveLoadFreq+0x20>
		self->freq = self->savedFreq;
     730:	84 85       	ldd	r24, Z+12	; 0x0c
     732:	95 85       	ldd	r25, Z+13	; 0x0d
     734:	93 87       	std	Z+11, r25	; 0x0b
     736:	82 87       	std	Z+10, r24	; 0x0a
     738:	04 c0       	rjmp	.+8      	; 0x742 <saveLoadFreq+0x28>
	} else {
		self->savedFreq = self->freq;
     73a:	95 87       	std	Z+13, r25	; 0x0d
     73c:	84 87       	std	Z+12, r24	; 0x0c
		self->freq = 0;
     73e:	13 86       	std	Z+11, r1	; 0x0b
     740:	12 86       	std	Z+10, r1	; 0x0a
	}
	
	ASYNC(self->gui, updateDisplayedFreq, self->freq);
     742:	06 81       	ldd	r16, Z+6	; 0x06
     744:	17 81       	ldd	r17, Z+7	; 0x07
     746:	c2 84       	ldd	r12, Z+10	; 0x0a
     748:	d3 84       	ldd	r13, Z+11	; 0x0b
     74a:	0f 2e       	mov	r0, r31
     74c:	fe ec       	ldi	r31, 0xCE	; 206
     74e:	ef 2e       	mov	r14, r31
     750:	f1 e0       	ldi	r31, 0x01	; 1
     752:	ff 2e       	mov	r15, r31
     754:	f0 2d       	mov	r31, r0
     756:	20 e0       	ldi	r18, 0x00	; 0
     758:	30 e0       	ldi	r19, 0x00	; 0
     75a:	a9 01       	movw	r20, r18
     75c:	60 e0       	ldi	r22, 0x00	; 0
     75e:	70 e0       	ldi	r23, 0x00	; 0
     760:	cb 01       	movw	r24, r22
     762:	0e 94 0b 0e 	call	0x1c16	; 0x1c16 <async>
}
     766:	1f 91       	pop	r17
     768:	0f 91       	pop	r16
     76a:	ff 90       	pop	r15
     76c:	ef 90       	pop	r14
     76e:	df 90       	pop	r13
     770:	cf 90       	pop	r12
     772:	08 95       	ret

00000774 <initialize>:
     774:	cf 93       	push	r28
     776:	df 93       	push	r29
     778:	00 d0       	rcall	.+0      	; 0x77a <initialize+0x6>
     77a:	00 d0       	rcall	.+0      	; 0x77c <initialize+0x8>
     77c:	cd b7       	in	r28, 0x3d	; 61
     77e:	de b7       	in	r29, 0x3e	; 62
     780:	80 e0       	ldi	r24, 0x00	; 0
     782:	90 e0       	ldi	r25, 0x00	; 0
     784:	18 c0       	rjmp	.+48     	; 0x7b6 <initialize+0x42>
     786:	ac 01       	movw	r20, r24
     788:	4f 5f       	subi	r20, 0xFF	; 255
     78a:	5f 4f       	sbci	r21, 0xFF	; 255
     78c:	9a 01       	movw	r18, r20
     78e:	22 95       	swap	r18
     790:	32 95       	swap	r19
     792:	30 7f       	andi	r19, 0xF0	; 240
     794:	32 27       	eor	r19, r18
     796:	20 7f       	andi	r18, 0xF0	; 240
     798:	32 27       	eor	r19, r18
     79a:	2f 5f       	subi	r18, 0xFF	; 255
     79c:	3d 4f       	sbci	r19, 0xFD	; 253
     79e:	82 95       	swap	r24
     7a0:	92 95       	swap	r25
     7a2:	90 7f       	andi	r25, 0xF0	; 240
     7a4:	98 27       	eor	r25, r24
     7a6:	80 7f       	andi	r24, 0xF0	; 240
     7a8:	98 27       	eor	r25, r24
     7aa:	fc 01       	movw	r30, r24
     7ac:	ef 5f       	subi	r30, 0xFF	; 255
     7ae:	fd 4f       	sbci	r31, 0xFD	; 253
     7b0:	31 83       	std	Z+1, r19	; 0x01
     7b2:	20 83       	st	Z, r18
     7b4:	ca 01       	movw	r24, r20
     7b6:	8e 30       	cpi	r24, 0x0E	; 14
     7b8:	91 05       	cpc	r25, r1
     7ba:	2c f3       	brlt	.-54     	; 0x786 <initialize+0x12>
     7bc:	10 92 e2 02 	sts	0x02E2, r1	; 0x8002e2 <messages+0xe1>
     7c0:	10 92 e1 02 	sts	0x02E1, r1	; 0x8002e1 <messages+0xe0>
     7c4:	80 e0       	ldi	r24, 0x00	; 0
     7c6:	90 e0       	ldi	r25, 0x00	; 0
     7c8:	15 c0       	rjmp	.+42     	; 0x7f4 <initialize+0x80>
     7ca:	ac 01       	movw	r20, r24
     7cc:	4f 5f       	subi	r20, 0xFF	; 255
     7ce:	5f 4f       	sbci	r21, 0xFF	; 255
     7d0:	6d e1       	ldi	r22, 0x1D	; 29
     7d2:	64 9f       	mul	r22, r20
     7d4:	90 01       	movw	r18, r0
     7d6:	65 9f       	mul	r22, r21
     7d8:	30 0d       	add	r19, r0
     7da:	11 24       	eor	r1, r1
     7dc:	24 5b       	subi	r18, 0xB4	; 180
     7de:	3e 4f       	sbci	r19, 0xFE	; 254
     7e0:	68 9f       	mul	r22, r24
     7e2:	f0 01       	movw	r30, r0
     7e4:	69 9f       	mul	r22, r25
     7e6:	f0 0d       	add	r31, r0
     7e8:	11 24       	eor	r1, r1
     7ea:	e4 5b       	subi	r30, 0xB4	; 180
     7ec:	fe 4f       	sbci	r31, 0xFE	; 254
     7ee:	31 83       	std	Z+1, r19	; 0x01
     7f0:	20 83       	st	Z, r18
     7f2:	ca 01       	movw	r24, r20
     7f4:	83 30       	cpi	r24, 0x03	; 3
     7f6:	91 05       	cpc	r25, r1
     7f8:	44 f3       	brlt	.-48     	; 0x7ca <initialize+0x56>
     7fa:	10 92 a4 01 	sts	0x01A4, r1	; 0x8001a4 <threads+0x58>
     7fe:	10 92 a3 01 	sts	0x01A3, r1	; 0x8001a3 <threads+0x57>
     802:	1a 82       	std	Y+2, r1	; 0x02
     804:	19 82       	std	Y+1, r1	; 0x01
     806:	32 c0       	rjmp	.+100    	; 0x86c <initialize+0xf8>
     808:	2d e1       	ldi	r18, 0x1D	; 29
     80a:	49 81       	ldd	r20, Y+1	; 0x01
     80c:	5a 81       	ldd	r21, Y+2	; 0x02
     80e:	24 9f       	mul	r18, r20
     810:	c0 01       	movw	r24, r0
     812:	25 9f       	mul	r18, r21
     814:	90 0d       	add	r25, r0
     816:	11 24       	eor	r1, r1
     818:	fc 01       	movw	r30, r24
     81a:	ee 5a       	subi	r30, 0xAE	; 174
     81c:	fe 4f       	sbci	r31, 0xFE	; 254
     81e:	fc 83       	std	Y+4, r31	; 0x04
     820:	eb 83       	std	Y+3, r30	; 0x03
     822:	cf 01       	movw	r24, r30
     824:	0e 94 d7 10 	call	0x21ae	; 0x21ae <setjmp>
     828:	20 e6       	ldi	r18, 0x60	; 96
     82a:	49 81       	ldd	r20, Y+1	; 0x01
     82c:	5a 81       	ldd	r21, Y+2	; 0x02
     82e:	24 9f       	mul	r18, r20
     830:	c0 01       	movw	r24, r0
     832:	25 9f       	mul	r18, r21
     834:	90 0d       	add	r25, r0
     836:	11 24       	eor	r1, r1
     838:	83 5b       	subi	r24, 0xB3	; 179
     83a:	9c 4f       	sbci	r25, 0xFC	; 252
     83c:	eb 81       	ldd	r30, Y+3	; 0x03
     83e:	fc 81       	ldd	r31, Y+4	; 0x04
     840:	91 8b       	std	Z+17, r25	; 0x11
     842:	80 8b       	std	Z+16, r24	; 0x10
     844:	93 8b       	std	Z+19, r25	; 0x13
     846:	82 8b       	std	Z+18, r24	; 0x12
     848:	86 e9       	ldi	r24, 0x96	; 150
     84a:	9f e0       	ldi	r25, 0x0F	; 15
     84c:	96 8b       	std	Z+22, r25	; 0x16
     84e:	85 8b       	std	Z+21, r24	; 0x15
     850:	8d e1       	ldi	r24, 0x1D	; 29
     852:	84 9f       	mul	r24, r20
     854:	f0 01       	movw	r30, r0
     856:	85 9f       	mul	r24, r21
     858:	f0 0d       	add	r31, r0
     85a:	11 24       	eor	r1, r1
     85c:	e4 5b       	subi	r30, 0xB4	; 180
     85e:	fe 4f       	sbci	r31, 0xFE	; 254
     860:	15 82       	std	Z+5, r1	; 0x05
     862:	14 82       	std	Z+4, r1	; 0x04
     864:	4f 5f       	subi	r20, 0xFF	; 255
     866:	5f 4f       	sbci	r21, 0xFF	; 255
     868:	5a 83       	std	Y+2, r21	; 0x02
     86a:	49 83       	std	Y+1, r20	; 0x01
     86c:	29 81       	ldd	r18, Y+1	; 0x01
     86e:	3a 81       	ldd	r19, Y+2	; 0x02
     870:	24 30       	cpi	r18, 0x04	; 4
     872:	31 05       	cpc	r19, r1
     874:	4c f2       	brlt	.-110    	; 0x808 <initialize+0x94>
     876:	e4 ee       	ldi	r30, 0xE4	; 228
     878:	f1 e0       	ldi	r31, 0x01	; 1
     87a:	11 82       	std	Z+1, r1	; 0x01
     87c:	10 82       	st	Z, r1
     87e:	15 82       	std	Z+5, r1	; 0x05
     880:	14 82       	std	Z+4, r1	; 0x04
     882:	13 82       	std	Z+3, r1	; 0x03
     884:	12 82       	std	Z+2, r1	; 0x02
     886:	e1 e6       	ldi	r30, 0x61	; 97
     888:	f0 e0       	ldi	r31, 0x00	; 0
     88a:	80 e8       	ldi	r24, 0x80	; 128
     88c:	80 83       	st	Z, r24
     88e:	10 82       	st	Z, r1
     890:	10 92 85 00 	sts	0x0085, r1	; 0x800085 <__TEXT_REGION_LENGTH__+0x7fc085>
     894:	10 92 84 00 	sts	0x0084, r1	; 0x800084 <__TEXT_REGION_LENGTH__+0x7fc084>
     898:	84 e0       	ldi	r24, 0x04	; 4
     89a:	80 93 81 00 	sts	0x0081, r24	; 0x800081 <__TEXT_REGION_LENGTH__+0x7fc081>
     89e:	81 e0       	ldi	r24, 0x01	; 1
     8a0:	80 93 6f 00 	sts	0x006F, r24	; 0x80006f <__TEXT_REGION_LENGTH__+0x7fc06f>
     8a4:	0f 90       	pop	r0
     8a6:	0f 90       	pop	r0
     8a8:	0f 90       	pop	r0
     8aa:	0f 90       	pop	r0
     8ac:	df 91       	pop	r29
     8ae:	cf 91       	pop	r28
     8b0:	08 95       	ret

000008b2 <dispatch>:
     8b2:	cf 93       	push	r28
     8b4:	df 93       	push	r29
     8b6:	00 d0       	rcall	.+0      	; 0x8b8 <dispatch+0x6>
     8b8:	cd b7       	in	r28, 0x3d	; 61
     8ba:	de b7       	in	r29, 0x3e	; 62
     8bc:	9a 83       	std	Y+2, r25	; 0x02
     8be:	89 83       	std	Y+1, r24	; 0x01
     8c0:	80 91 00 01 	lds	r24, 0x0100	; 0x800100 <__DATA_REGION_ORIGIN__>
     8c4:	90 91 01 01 	lds	r25, 0x0101	; 0x800101 <__DATA_REGION_ORIGIN__+0x1>
     8c8:	06 96       	adiw	r24, 0x06	; 6
     8ca:	0e 94 d7 10 	call	0x21ae	; 0x21ae <setjmp>
     8ce:	89 2b       	or	r24, r25
     8d0:	59 f4       	brne	.+22     	; 0x8e8 <dispatch+0x36>
     8d2:	89 81       	ldd	r24, Y+1	; 0x01
     8d4:	9a 81       	ldd	r25, Y+2	; 0x02
     8d6:	90 93 01 01 	sts	0x0101, r25	; 0x800101 <__DATA_REGION_ORIGIN__+0x1>
     8da:	80 93 00 01 	sts	0x0100, r24	; 0x800100 <__DATA_REGION_ORIGIN__>
     8de:	61 e0       	ldi	r22, 0x01	; 1
     8e0:	70 e0       	ldi	r23, 0x00	; 0
     8e2:	06 96       	adiw	r24, 0x06	; 6
     8e4:	0e 94 f7 10 	call	0x21ee	; 0x21ee <longjmp>
     8e8:	0f 90       	pop	r0
     8ea:	0f 90       	pop	r0
     8ec:	df 91       	pop	r29
     8ee:	cf 91       	pop	r28
     8f0:	08 95       	ret

000008f2 <enqueueByDeadline>:
     8f2:	0f 93       	push	r16
     8f4:	1f 93       	push	r17
     8f6:	cf 93       	push	r28
     8f8:	df 93       	push	r29
     8fa:	dc 01       	movw	r26, r24
     8fc:	cb 01       	movw	r24, r22
     8fe:	eb 01       	movw	r28, r22
     900:	e8 81       	ld	r30, Y
     902:	f9 81       	ldd	r31, Y+1	; 0x01
     904:	c0 e0       	ldi	r28, 0x00	; 0
     906:	d0 e0       	ldi	r29, 0x00	; 0
     908:	04 c0       	rjmp	.+8      	; 0x912 <enqueueByDeadline+0x20>
     90a:	ef 01       	movw	r28, r30
     90c:	01 90       	ld	r0, Z+
     90e:	f0 81       	ld	r31, Z
     910:	e0 2d       	mov	r30, r0
     912:	30 97       	sbiw	r30, 0x00	; 0
     914:	79 f0       	breq	.+30     	; 0x934 <enqueueByDeadline+0x42>
     916:	06 81       	ldd	r16, Z+6	; 0x06
     918:	17 81       	ldd	r17, Z+7	; 0x07
     91a:	20 85       	ldd	r18, Z+8	; 0x08
     91c:	31 85       	ldd	r19, Z+9	; 0x09
     91e:	16 96       	adiw	r26, 0x06	; 6
     920:	4d 91       	ld	r20, X+
     922:	5d 91       	ld	r21, X+
     924:	6d 91       	ld	r22, X+
     926:	7c 91       	ld	r23, X
     928:	19 97       	sbiw	r26, 0x09	; 9
     92a:	40 17       	cp	r20, r16
     92c:	51 07       	cpc	r21, r17
     92e:	62 07       	cpc	r22, r18
     930:	73 07       	cpc	r23, r19
     932:	5c f7       	brge	.-42     	; 0x90a <enqueueByDeadline+0x18>
     934:	11 96       	adiw	r26, 0x01	; 1
     936:	fc 93       	st	X, r31
     938:	ee 93       	st	-X, r30
     93a:	20 97       	sbiw	r28, 0x00	; 0
     93c:	21 f4       	brne	.+8      	; 0x946 <enqueueByDeadline+0x54>
     93e:	fc 01       	movw	r30, r24
     940:	b1 83       	std	Z+1, r27	; 0x01
     942:	a0 83       	st	Z, r26
     944:	02 c0       	rjmp	.+4      	; 0x94a <enqueueByDeadline+0x58>
     946:	b9 83       	std	Y+1, r27	; 0x01
     948:	a8 83       	st	Y, r26
     94a:	df 91       	pop	r29
     94c:	cf 91       	pop	r28
     94e:	1f 91       	pop	r17
     950:	0f 91       	pop	r16
     952:	08 95       	ret

00000954 <enqueueByBaseline>:
     954:	0f 93       	push	r16
     956:	1f 93       	push	r17
     958:	cf 93       	push	r28
     95a:	df 93       	push	r29
     95c:	dc 01       	movw	r26, r24
     95e:	cb 01       	movw	r24, r22
     960:	eb 01       	movw	r28, r22
     962:	e8 81       	ld	r30, Y
     964:	f9 81       	ldd	r31, Y+1	; 0x01
     966:	c0 e0       	ldi	r28, 0x00	; 0
     968:	d0 e0       	ldi	r29, 0x00	; 0
     96a:	04 c0       	rjmp	.+8      	; 0x974 <enqueueByBaseline+0x20>
     96c:	ef 01       	movw	r28, r30
     96e:	01 90       	ld	r0, Z+
     970:	f0 81       	ld	r31, Z
     972:	e0 2d       	mov	r30, r0
     974:	30 97       	sbiw	r30, 0x00	; 0
     976:	79 f0       	breq	.+30     	; 0x996 <enqueueByBaseline+0x42>
     978:	02 81       	ldd	r16, Z+2	; 0x02
     97a:	13 81       	ldd	r17, Z+3	; 0x03
     97c:	24 81       	ldd	r18, Z+4	; 0x04
     97e:	35 81       	ldd	r19, Z+5	; 0x05
     980:	12 96       	adiw	r26, 0x02	; 2
     982:	4d 91       	ld	r20, X+
     984:	5d 91       	ld	r21, X+
     986:	6d 91       	ld	r22, X+
     988:	7c 91       	ld	r23, X
     98a:	15 97       	sbiw	r26, 0x05	; 5
     98c:	40 17       	cp	r20, r16
     98e:	51 07       	cpc	r21, r17
     990:	62 07       	cpc	r22, r18
     992:	73 07       	cpc	r23, r19
     994:	5c f7       	brge	.-42     	; 0x96c <enqueueByBaseline+0x18>
     996:	11 96       	adiw	r26, 0x01	; 1
     998:	fc 93       	st	X, r31
     99a:	ee 93       	st	-X, r30
     99c:	20 97       	sbiw	r28, 0x00	; 0
     99e:	21 f4       	brne	.+8      	; 0x9a8 <enqueueByBaseline+0x54>
     9a0:	fc 01       	movw	r30, r24
     9a2:	b1 83       	std	Z+1, r27	; 0x01
     9a4:	a0 83       	st	Z, r26
     9a6:	02 c0       	rjmp	.+4      	; 0x9ac <enqueueByBaseline+0x58>
     9a8:	b9 83       	std	Y+1, r27	; 0x01
     9aa:	a8 83       	st	Y, r26
     9ac:	df 91       	pop	r29
     9ae:	cf 91       	pop	r28
     9b0:	1f 91       	pop	r17
     9b2:	0f 91       	pop	r16
     9b4:	08 95       	ret

000009b6 <dequeue>:
     9b6:	dc 01       	movw	r26, r24
     9b8:	ed 91       	ld	r30, X+
     9ba:	fc 91       	ld	r31, X
     9bc:	11 97       	sbiw	r26, 0x01	; 1
     9be:	30 97       	sbiw	r30, 0x00	; 0
     9c0:	59 f4       	brne	.+22     	; 0x9d8 <dequeue+0x22>
     9c2:	8f ef       	ldi	r24, 0xFF	; 255
     9c4:	80 93 ec 00 	sts	0x00EC, r24	; 0x8000ec <__TEXT_REGION_LENGTH__+0x7fc0ec>
     9c8:	80 93 ed 00 	sts	0x00ED, r24	; 0x8000ed <__TEXT_REGION_LENGTH__+0x7fc0ed>
     9cc:	80 93 ee 00 	sts	0x00EE, r24	; 0x8000ee <__TEXT_REGION_LENGTH__+0x7fc0ee>
     9d0:	81 e0       	ldi	r24, 0x01	; 1
     9d2:	83 bf       	out	0x33, r24	; 51
     9d4:	88 95       	sleep
     9d6:	fc cf       	rjmp	.-8      	; 0x9d0 <dequeue+0x1a>
     9d8:	20 81       	ld	r18, Z
     9da:	31 81       	ldd	r19, Z+1	; 0x01
     9dc:	2d 93       	st	X+, r18
     9de:	3c 93       	st	X, r19
     9e0:	cf 01       	movw	r24, r30
     9e2:	08 95       	ret

000009e4 <insert>:
     9e4:	fb 01       	movw	r30, r22
     9e6:	20 81       	ld	r18, Z
     9e8:	31 81       	ldd	r19, Z+1	; 0x01
     9ea:	fc 01       	movw	r30, r24
     9ec:	31 83       	std	Z+1, r19	; 0x01
     9ee:	20 83       	st	Z, r18
     9f0:	fb 01       	movw	r30, r22
     9f2:	91 83       	std	Z+1, r25	; 0x01
     9f4:	80 83       	st	Z, r24
     9f6:	08 95       	ret

000009f8 <push>:
     9f8:	fb 01       	movw	r30, r22
     9fa:	20 81       	ld	r18, Z
     9fc:	31 81       	ldd	r19, Z+1	; 0x01
     9fe:	fc 01       	movw	r30, r24
     a00:	31 83       	std	Z+1, r19	; 0x01
     a02:	20 83       	st	Z, r18
     a04:	fb 01       	movw	r30, r22
     a06:	91 83       	std	Z+1, r25	; 0x01
     a08:	80 83       	st	Z, r24
     a0a:	08 95       	ret

00000a0c <pop>:
     a0c:	dc 01       	movw	r26, r24
     a0e:	ed 91       	ld	r30, X+
     a10:	fc 91       	ld	r31, X
     a12:	11 97       	sbiw	r26, 0x01	; 1
     a14:	20 81       	ld	r18, Z
     a16:	31 81       	ldd	r19, Z+1	; 0x01
     a18:	2d 93       	st	X+, r18
     a1a:	3c 93       	st	X, r19
     a1c:	cf 01       	movw	r24, r30
     a1e:	08 95       	ret

00000a20 <schedule>:
     a20:	cf 93       	push	r28
     a22:	df 93       	push	r29
     a24:	e0 91 02 01 	lds	r30, 0x0102	; 0x800102 <activeStack>
     a28:	f0 91 03 01 	lds	r31, 0x0103	; 0x800103 <activeStack+0x1>
     a2c:	c2 81       	ldd	r28, Z+2	; 0x02
     a2e:	d3 81       	ldd	r29, Z+3	; 0x03
     a30:	e0 91 26 01 	lds	r30, 0x0126	; 0x800126 <msgQ>
     a34:	f0 91 27 01 	lds	r31, 0x0127	; 0x800127 <msgQ+0x1>
     a38:	30 97       	sbiw	r30, 0x00	; 0
     a3a:	19 f1       	breq	.+70     	; 0xa82 <schedule+0x62>
     a3c:	80 91 04 01 	lds	r24, 0x0104	; 0x800104 <threadPool>
     a40:	90 91 05 01 	lds	r25, 0x0105	; 0x800105 <threadPool+0x1>
     a44:	89 2b       	or	r24, r25
     a46:	e9 f0       	breq	.+58     	; 0xa82 <schedule+0x62>
     a48:	20 97       	sbiw	r28, 0x00	; 0
     a4a:	69 f0       	breq	.+26     	; 0xa66 <schedule+0x46>
     a4c:	86 81       	ldd	r24, Z+6	; 0x06
     a4e:	97 81       	ldd	r25, Z+7	; 0x07
     a50:	a0 85       	ldd	r26, Z+8	; 0x08
     a52:	b1 85       	ldd	r27, Z+9	; 0x09
     a54:	4e 81       	ldd	r20, Y+6	; 0x06
     a56:	5f 81       	ldd	r21, Y+7	; 0x07
     a58:	68 85       	ldd	r22, Y+8	; 0x08
     a5a:	79 85       	ldd	r23, Y+9	; 0x09
     a5c:	84 1b       	sub	r24, r20
     a5e:	95 0b       	sbc	r25, r21
     a60:	a6 0b       	sbc	r26, r22
     a62:	b7 0b       	sbc	r27, r23
     a64:	72 f4       	brpl	.+28     	; 0xa82 <schedule+0x62>
     a66:	84 e0       	ldi	r24, 0x04	; 4
     a68:	91 e0       	ldi	r25, 0x01	; 1
     a6a:	0e 94 06 05 	call	0xa0c	; 0xa0c <pop>
     a6e:	62 e0       	ldi	r22, 0x02	; 2
     a70:	71 e0       	ldi	r23, 0x01	; 1
     a72:	0e 94 fc 04 	call	0x9f8	; 0x9f8 <push>
     a76:	80 91 02 01 	lds	r24, 0x0102	; 0x800102 <activeStack>
     a7a:	90 91 03 01 	lds	r25, 0x0103	; 0x800103 <activeStack+0x1>
     a7e:	0e 94 59 04 	call	0x8b2	; 0x8b2 <dispatch>
     a82:	df 91       	pop	r29
     a84:	cf 91       	pop	r28
     a86:	08 95       	ret

00000a88 <__vector_1>:
     a88:	1f 92       	push	r1
     a8a:	0f 92       	push	r0
     a8c:	0f b6       	in	r0, 0x3f	; 63
     a8e:	0f 92       	push	r0
     a90:	11 24       	eor	r1, r1
     a92:	0f 93       	push	r16
     a94:	1f 93       	push	r17
     a96:	2f 93       	push	r18
     a98:	3f 93       	push	r19
     a9a:	4f 93       	push	r20
     a9c:	5f 93       	push	r21
     a9e:	6f 93       	push	r22
     aa0:	7f 93       	push	r23
     aa2:	8f 93       	push	r24
     aa4:	9f 93       	push	r25
     aa6:	af 93       	push	r26
     aa8:	bf 93       	push	r27
     aaa:	ef 93       	push	r30
     aac:	ff 93       	push	r31
     aae:	80 91 1e 01 	lds	r24, 0x011E	; 0x80011e <__data_end>
     ab2:	90 91 1f 01 	lds	r25, 0x011F	; 0x80011f <__data_end+0x1>
     ab6:	ac 01       	movw	r20, r24
     ab8:	09 2e       	mov	r0, r25
     aba:	00 0c       	add	r0, r0
     abc:	66 0b       	sbc	r22, r22
     abe:	77 0b       	sbc	r23, r23
     ac0:	9a 01       	movw	r18, r20
     ac2:	11 27       	eor	r17, r17
     ac4:	00 27       	eor	r16, r16
     ac6:	40 91 84 00 	lds	r20, 0x0084	; 0x800084 <__TEXT_REGION_LENGTH__+0x7fc084>
     aca:	50 91 85 00 	lds	r21, 0x0085	; 0x800085 <__TEXT_REGION_LENGTH__+0x7fc085>
     ace:	60 e0       	ldi	r22, 0x00	; 0
     ad0:	70 e0       	ldi	r23, 0x00	; 0
     ad2:	40 2b       	or	r20, r16
     ad4:	51 2b       	or	r21, r17
     ad6:	62 2b       	or	r22, r18
     ad8:	73 2b       	or	r23, r19
     ada:	40 93 20 01 	sts	0x0120, r20	; 0x800120 <timestamp>
     ade:	50 93 21 01 	sts	0x0121, r21	; 0x800121 <timestamp+0x1>
     ae2:	60 93 22 01 	sts	0x0122, r22	; 0x800122 <timestamp+0x2>
     ae6:	70 93 23 01 	sts	0x0123, r23	; 0x800123 <timestamp+0x3>
     aea:	b0 9b       	sbis	0x16, 0	; 22
     aec:	1a c0       	rjmp	.+52     	; 0xb22 <__vector_1+0x9a>
     aee:	01 96       	adiw	r24, 0x01	; 1
     af0:	09 2e       	mov	r0, r25
     af2:	00 0c       	add	r0, r0
     af4:	aa 0b       	sbc	r26, r26
     af6:	bb 0b       	sbc	r27, r27
     af8:	bc 01       	movw	r22, r24
     afa:	55 27       	eor	r21, r21
     afc:	44 27       	eor	r20, r20
     afe:	80 91 84 00 	lds	r24, 0x0084	; 0x800084 <__TEXT_REGION_LENGTH__+0x7fc084>
     b02:	90 91 85 00 	lds	r25, 0x0085	; 0x800085 <__TEXT_REGION_LENGTH__+0x7fc085>
     b06:	a0 e0       	ldi	r26, 0x00	; 0
     b08:	b0 e0       	ldi	r27, 0x00	; 0
     b0a:	84 2b       	or	r24, r20
     b0c:	95 2b       	or	r25, r21
     b0e:	a6 2b       	or	r26, r22
     b10:	b7 2b       	or	r27, r23
     b12:	80 93 20 01 	sts	0x0120, r24	; 0x800120 <timestamp>
     b16:	90 93 21 01 	sts	0x0121, r25	; 0x800121 <timestamp+0x1>
     b1a:	a0 93 22 01 	sts	0x0122, r26	; 0x800122 <timestamp+0x2>
     b1e:	b0 93 23 01 	sts	0x0123, r27	; 0x800123 <timestamp+0x3>
     b22:	e0 91 c0 01 	lds	r30, 0x01C0	; 0x8001c0 <mtable>
     b26:	f0 91 c1 01 	lds	r31, 0x01C1	; 0x8001c1 <mtable+0x1>
     b2a:	30 97       	sbiw	r30, 0x00	; 0
     b2c:	39 f0       	breq	.+14     	; 0xb3c <__vector_1+0xb4>
     b2e:	60 e0       	ldi	r22, 0x00	; 0
     b30:	70 e0       	ldi	r23, 0x00	; 0
     b32:	80 91 28 01 	lds	r24, 0x0128	; 0x800128 <otable>
     b36:	90 91 29 01 	lds	r25, 0x0129	; 0x800129 <otable+0x1>
     b3a:	09 95       	icall
     b3c:	0e 94 10 05 	call	0xa20	; 0xa20 <schedule>
     b40:	ff 91       	pop	r31
     b42:	ef 91       	pop	r30
     b44:	bf 91       	pop	r27
     b46:	af 91       	pop	r26
     b48:	9f 91       	pop	r25
     b4a:	8f 91       	pop	r24
     b4c:	7f 91       	pop	r23
     b4e:	6f 91       	pop	r22
     b50:	5f 91       	pop	r21
     b52:	4f 91       	pop	r20
     b54:	3f 91       	pop	r19
     b56:	2f 91       	pop	r18
     b58:	1f 91       	pop	r17
     b5a:	0f 91       	pop	r16
     b5c:	0f 90       	pop	r0
     b5e:	0f be       	out	0x3f, r0	; 63
     b60:	0f 90       	pop	r0
     b62:	1f 90       	pop	r1
     b64:	18 95       	reti

00000b66 <__vector_2>:
     b66:	1f 92       	push	r1
     b68:	0f 92       	push	r0
     b6a:	0f b6       	in	r0, 0x3f	; 63
     b6c:	0f 92       	push	r0
     b6e:	11 24       	eor	r1, r1
     b70:	0f 93       	push	r16
     b72:	1f 93       	push	r17
     b74:	2f 93       	push	r18
     b76:	3f 93       	push	r19
     b78:	4f 93       	push	r20
     b7a:	5f 93       	push	r21
     b7c:	6f 93       	push	r22
     b7e:	7f 93       	push	r23
     b80:	8f 93       	push	r24
     b82:	9f 93       	push	r25
     b84:	af 93       	push	r26
     b86:	bf 93       	push	r27
     b88:	ef 93       	push	r30
     b8a:	ff 93       	push	r31
     b8c:	80 91 1e 01 	lds	r24, 0x011E	; 0x80011e <__data_end>
     b90:	90 91 1f 01 	lds	r25, 0x011F	; 0x80011f <__data_end+0x1>
     b94:	ac 01       	movw	r20, r24
     b96:	09 2e       	mov	r0, r25
     b98:	00 0c       	add	r0, r0
     b9a:	66 0b       	sbc	r22, r22
     b9c:	77 0b       	sbc	r23, r23
     b9e:	9a 01       	movw	r18, r20
     ba0:	11 27       	eor	r17, r17
     ba2:	00 27       	eor	r16, r16
     ba4:	40 91 84 00 	lds	r20, 0x0084	; 0x800084 <__TEXT_REGION_LENGTH__+0x7fc084>
     ba8:	50 91 85 00 	lds	r21, 0x0085	; 0x800085 <__TEXT_REGION_LENGTH__+0x7fc085>
     bac:	60 e0       	ldi	r22, 0x00	; 0
     bae:	70 e0       	ldi	r23, 0x00	; 0
     bb0:	40 2b       	or	r20, r16
     bb2:	51 2b       	or	r21, r17
     bb4:	62 2b       	or	r22, r18
     bb6:	73 2b       	or	r23, r19
     bb8:	40 93 20 01 	sts	0x0120, r20	; 0x800120 <timestamp>
     bbc:	50 93 21 01 	sts	0x0121, r21	; 0x800121 <timestamp+0x1>
     bc0:	60 93 22 01 	sts	0x0122, r22	; 0x800122 <timestamp+0x2>
     bc4:	70 93 23 01 	sts	0x0123, r23	; 0x800123 <timestamp+0x3>
     bc8:	b0 9b       	sbis	0x16, 0	; 22
     bca:	1a c0       	rjmp	.+52     	; 0xc00 <__vector_2+0x9a>
     bcc:	01 96       	adiw	r24, 0x01	; 1
     bce:	09 2e       	mov	r0, r25
     bd0:	00 0c       	add	r0, r0
     bd2:	aa 0b       	sbc	r26, r26
     bd4:	bb 0b       	sbc	r27, r27
     bd6:	bc 01       	movw	r22, r24
     bd8:	55 27       	eor	r21, r21
     bda:	44 27       	eor	r20, r20
     bdc:	80 91 84 00 	lds	r24, 0x0084	; 0x800084 <__TEXT_REGION_LENGTH__+0x7fc084>
     be0:	90 91 85 00 	lds	r25, 0x0085	; 0x800085 <__TEXT_REGION_LENGTH__+0x7fc085>
     be4:	a0 e0       	ldi	r26, 0x00	; 0
     be6:	b0 e0       	ldi	r27, 0x00	; 0
     be8:	84 2b       	or	r24, r20
     bea:	95 2b       	or	r25, r21
     bec:	a6 2b       	or	r26, r22
     bee:	b7 2b       	or	r27, r23
     bf0:	80 93 20 01 	sts	0x0120, r24	; 0x800120 <timestamp>
     bf4:	90 93 21 01 	sts	0x0121, r25	; 0x800121 <timestamp+0x1>
     bf8:	a0 93 22 01 	sts	0x0122, r26	; 0x800122 <timestamp+0x2>
     bfc:	b0 93 23 01 	sts	0x0123, r27	; 0x800123 <timestamp+0x3>
     c00:	e0 91 c2 01 	lds	r30, 0x01C2	; 0x8001c2 <mtable+0x2>
     c04:	f0 91 c3 01 	lds	r31, 0x01C3	; 0x8001c3 <mtable+0x3>
     c08:	30 97       	sbiw	r30, 0x00	; 0
     c0a:	39 f0       	breq	.+14     	; 0xc1a <__vector_2+0xb4>
     c0c:	61 e0       	ldi	r22, 0x01	; 1
     c0e:	70 e0       	ldi	r23, 0x00	; 0
     c10:	80 91 2a 01 	lds	r24, 0x012A	; 0x80012a <otable+0x2>
     c14:	90 91 2b 01 	lds	r25, 0x012B	; 0x80012b <otable+0x3>
     c18:	09 95       	icall
     c1a:	0e 94 10 05 	call	0xa20	; 0xa20 <schedule>
     c1e:	ff 91       	pop	r31
     c20:	ef 91       	pop	r30
     c22:	bf 91       	pop	r27
     c24:	af 91       	pop	r26
     c26:	9f 91       	pop	r25
     c28:	8f 91       	pop	r24
     c2a:	7f 91       	pop	r23
     c2c:	6f 91       	pop	r22
     c2e:	5f 91       	pop	r21
     c30:	4f 91       	pop	r20
     c32:	3f 91       	pop	r19
     c34:	2f 91       	pop	r18
     c36:	1f 91       	pop	r17
     c38:	0f 91       	pop	r16
     c3a:	0f 90       	pop	r0
     c3c:	0f be       	out	0x3f, r0	; 63
     c3e:	0f 90       	pop	r0
     c40:	1f 90       	pop	r1
     c42:	18 95       	reti

00000c44 <__vector_3>:
     c44:	1f 92       	push	r1
     c46:	0f 92       	push	r0
     c48:	0f b6       	in	r0, 0x3f	; 63
     c4a:	0f 92       	push	r0
     c4c:	11 24       	eor	r1, r1
     c4e:	0f 93       	push	r16
     c50:	1f 93       	push	r17
     c52:	2f 93       	push	r18
     c54:	3f 93       	push	r19
     c56:	4f 93       	push	r20
     c58:	5f 93       	push	r21
     c5a:	6f 93       	push	r22
     c5c:	7f 93       	push	r23
     c5e:	8f 93       	push	r24
     c60:	9f 93       	push	r25
     c62:	af 93       	push	r26
     c64:	bf 93       	push	r27
     c66:	ef 93       	push	r30
     c68:	ff 93       	push	r31
     c6a:	80 91 1e 01 	lds	r24, 0x011E	; 0x80011e <__data_end>
     c6e:	90 91 1f 01 	lds	r25, 0x011F	; 0x80011f <__data_end+0x1>
     c72:	ac 01       	movw	r20, r24
     c74:	09 2e       	mov	r0, r25
     c76:	00 0c       	add	r0, r0
     c78:	66 0b       	sbc	r22, r22
     c7a:	77 0b       	sbc	r23, r23
     c7c:	9a 01       	movw	r18, r20
     c7e:	11 27       	eor	r17, r17
     c80:	00 27       	eor	r16, r16
     c82:	40 91 84 00 	lds	r20, 0x0084	; 0x800084 <__TEXT_REGION_LENGTH__+0x7fc084>
     c86:	50 91 85 00 	lds	r21, 0x0085	; 0x800085 <__TEXT_REGION_LENGTH__+0x7fc085>
     c8a:	60 e0       	ldi	r22, 0x00	; 0
     c8c:	70 e0       	ldi	r23, 0x00	; 0
     c8e:	40 2b       	or	r20, r16
     c90:	51 2b       	or	r21, r17
     c92:	62 2b       	or	r22, r18
     c94:	73 2b       	or	r23, r19
     c96:	40 93 20 01 	sts	0x0120, r20	; 0x800120 <timestamp>
     c9a:	50 93 21 01 	sts	0x0121, r21	; 0x800121 <timestamp+0x1>
     c9e:	60 93 22 01 	sts	0x0122, r22	; 0x800122 <timestamp+0x2>
     ca2:	70 93 23 01 	sts	0x0123, r23	; 0x800123 <timestamp+0x3>
     ca6:	b0 9b       	sbis	0x16, 0	; 22
     ca8:	1a c0       	rjmp	.+52     	; 0xcde <__vector_3+0x9a>
     caa:	01 96       	adiw	r24, 0x01	; 1
     cac:	09 2e       	mov	r0, r25
     cae:	00 0c       	add	r0, r0
     cb0:	aa 0b       	sbc	r26, r26
     cb2:	bb 0b       	sbc	r27, r27
     cb4:	bc 01       	movw	r22, r24
     cb6:	55 27       	eor	r21, r21
     cb8:	44 27       	eor	r20, r20
     cba:	80 91 84 00 	lds	r24, 0x0084	; 0x800084 <__TEXT_REGION_LENGTH__+0x7fc084>
     cbe:	90 91 85 00 	lds	r25, 0x0085	; 0x800085 <__TEXT_REGION_LENGTH__+0x7fc085>
     cc2:	a0 e0       	ldi	r26, 0x00	; 0
     cc4:	b0 e0       	ldi	r27, 0x00	; 0
     cc6:	84 2b       	or	r24, r20
     cc8:	95 2b       	or	r25, r21
     cca:	a6 2b       	or	r26, r22
     ccc:	b7 2b       	or	r27, r23
     cce:	80 93 20 01 	sts	0x0120, r24	; 0x800120 <timestamp>
     cd2:	90 93 21 01 	sts	0x0121, r25	; 0x800121 <timestamp+0x1>
     cd6:	a0 93 22 01 	sts	0x0122, r26	; 0x800122 <timestamp+0x2>
     cda:	b0 93 23 01 	sts	0x0123, r27	; 0x800123 <timestamp+0x3>
     cde:	e0 91 c4 01 	lds	r30, 0x01C4	; 0x8001c4 <mtable+0x4>
     ce2:	f0 91 c5 01 	lds	r31, 0x01C5	; 0x8001c5 <mtable+0x5>
     ce6:	30 97       	sbiw	r30, 0x00	; 0
     ce8:	39 f0       	breq	.+14     	; 0xcf8 <__vector_3+0xb4>
     cea:	62 e0       	ldi	r22, 0x02	; 2
     cec:	70 e0       	ldi	r23, 0x00	; 0
     cee:	80 91 2c 01 	lds	r24, 0x012C	; 0x80012c <otable+0x4>
     cf2:	90 91 2d 01 	lds	r25, 0x012D	; 0x80012d <otable+0x5>
     cf6:	09 95       	icall
     cf8:	0e 94 10 05 	call	0xa20	; 0xa20 <schedule>
     cfc:	ff 91       	pop	r31
     cfe:	ef 91       	pop	r30
     d00:	bf 91       	pop	r27
     d02:	af 91       	pop	r26
     d04:	9f 91       	pop	r25
     d06:	8f 91       	pop	r24
     d08:	7f 91       	pop	r23
     d0a:	6f 91       	pop	r22
     d0c:	5f 91       	pop	r21
     d0e:	4f 91       	pop	r20
     d10:	3f 91       	pop	r19
     d12:	2f 91       	pop	r18
     d14:	1f 91       	pop	r17
     d16:	0f 91       	pop	r16
     d18:	0f 90       	pop	r0
     d1a:	0f be       	out	0x3f, r0	; 63
     d1c:	0f 90       	pop	r0
     d1e:	1f 90       	pop	r1
     d20:	18 95       	reti

00000d22 <__vector_4>:
     d22:	1f 92       	push	r1
     d24:	0f 92       	push	r0
     d26:	0f b6       	in	r0, 0x3f	; 63
     d28:	0f 92       	push	r0
     d2a:	11 24       	eor	r1, r1
     d2c:	0f 93       	push	r16
     d2e:	1f 93       	push	r17
     d30:	2f 93       	push	r18
     d32:	3f 93       	push	r19
     d34:	4f 93       	push	r20
     d36:	5f 93       	push	r21
     d38:	6f 93       	push	r22
     d3a:	7f 93       	push	r23
     d3c:	8f 93       	push	r24
     d3e:	9f 93       	push	r25
     d40:	af 93       	push	r26
     d42:	bf 93       	push	r27
     d44:	ef 93       	push	r30
     d46:	ff 93       	push	r31
     d48:	80 91 1e 01 	lds	r24, 0x011E	; 0x80011e <__data_end>
     d4c:	90 91 1f 01 	lds	r25, 0x011F	; 0x80011f <__data_end+0x1>
     d50:	ac 01       	movw	r20, r24
     d52:	09 2e       	mov	r0, r25
     d54:	00 0c       	add	r0, r0
     d56:	66 0b       	sbc	r22, r22
     d58:	77 0b       	sbc	r23, r23
     d5a:	9a 01       	movw	r18, r20
     d5c:	11 27       	eor	r17, r17
     d5e:	00 27       	eor	r16, r16
     d60:	40 91 84 00 	lds	r20, 0x0084	; 0x800084 <__TEXT_REGION_LENGTH__+0x7fc084>
     d64:	50 91 85 00 	lds	r21, 0x0085	; 0x800085 <__TEXT_REGION_LENGTH__+0x7fc085>
     d68:	60 e0       	ldi	r22, 0x00	; 0
     d6a:	70 e0       	ldi	r23, 0x00	; 0
     d6c:	40 2b       	or	r20, r16
     d6e:	51 2b       	or	r21, r17
     d70:	62 2b       	or	r22, r18
     d72:	73 2b       	or	r23, r19
     d74:	40 93 20 01 	sts	0x0120, r20	; 0x800120 <timestamp>
     d78:	50 93 21 01 	sts	0x0121, r21	; 0x800121 <timestamp+0x1>
     d7c:	60 93 22 01 	sts	0x0122, r22	; 0x800122 <timestamp+0x2>
     d80:	70 93 23 01 	sts	0x0123, r23	; 0x800123 <timestamp+0x3>
     d84:	b0 9b       	sbis	0x16, 0	; 22
     d86:	1a c0       	rjmp	.+52     	; 0xdbc <__vector_4+0x9a>
     d88:	01 96       	adiw	r24, 0x01	; 1
     d8a:	09 2e       	mov	r0, r25
     d8c:	00 0c       	add	r0, r0
     d8e:	aa 0b       	sbc	r26, r26
     d90:	bb 0b       	sbc	r27, r27
     d92:	bc 01       	movw	r22, r24
     d94:	55 27       	eor	r21, r21
     d96:	44 27       	eor	r20, r20
     d98:	80 91 84 00 	lds	r24, 0x0084	; 0x800084 <__TEXT_REGION_LENGTH__+0x7fc084>
     d9c:	90 91 85 00 	lds	r25, 0x0085	; 0x800085 <__TEXT_REGION_LENGTH__+0x7fc085>
     da0:	a0 e0       	ldi	r26, 0x00	; 0
     da2:	b0 e0       	ldi	r27, 0x00	; 0
     da4:	84 2b       	or	r24, r20
     da6:	95 2b       	or	r25, r21
     da8:	a6 2b       	or	r26, r22
     daa:	b7 2b       	or	r27, r23
     dac:	80 93 20 01 	sts	0x0120, r24	; 0x800120 <timestamp>
     db0:	90 93 21 01 	sts	0x0121, r25	; 0x800121 <timestamp+0x1>
     db4:	a0 93 22 01 	sts	0x0122, r26	; 0x800122 <timestamp+0x2>
     db8:	b0 93 23 01 	sts	0x0123, r27	; 0x800123 <timestamp+0x3>
     dbc:	e0 91 c6 01 	lds	r30, 0x01C6	; 0x8001c6 <mtable+0x6>
     dc0:	f0 91 c7 01 	lds	r31, 0x01C7	; 0x8001c7 <mtable+0x7>
     dc4:	30 97       	sbiw	r30, 0x00	; 0
     dc6:	39 f0       	breq	.+14     	; 0xdd6 <__vector_4+0xb4>
     dc8:	63 e0       	ldi	r22, 0x03	; 3
     dca:	70 e0       	ldi	r23, 0x00	; 0
     dcc:	80 91 2e 01 	lds	r24, 0x012E	; 0x80012e <otable+0x6>
     dd0:	90 91 2f 01 	lds	r25, 0x012F	; 0x80012f <otable+0x7>
     dd4:	09 95       	icall
     dd6:	0e 94 10 05 	call	0xa20	; 0xa20 <schedule>
     dda:	ff 91       	pop	r31
     ddc:	ef 91       	pop	r30
     dde:	bf 91       	pop	r27
     de0:	af 91       	pop	r26
     de2:	9f 91       	pop	r25
     de4:	8f 91       	pop	r24
     de6:	7f 91       	pop	r23
     de8:	6f 91       	pop	r22
     dea:	5f 91       	pop	r21
     dec:	4f 91       	pop	r20
     dee:	3f 91       	pop	r19
     df0:	2f 91       	pop	r18
     df2:	1f 91       	pop	r17
     df4:	0f 91       	pop	r16
     df6:	0f 90       	pop	r0
     df8:	0f be       	out	0x3f, r0	; 63
     dfa:	0f 90       	pop	r0
     dfc:	1f 90       	pop	r1
     dfe:	18 95       	reti

00000e00 <__vector_5>:
     e00:	1f 92       	push	r1
     e02:	0f 92       	push	r0
     e04:	0f b6       	in	r0, 0x3f	; 63
     e06:	0f 92       	push	r0
     e08:	11 24       	eor	r1, r1
     e0a:	0f 93       	push	r16
     e0c:	1f 93       	push	r17
     e0e:	2f 93       	push	r18
     e10:	3f 93       	push	r19
     e12:	4f 93       	push	r20
     e14:	5f 93       	push	r21
     e16:	6f 93       	push	r22
     e18:	7f 93       	push	r23
     e1a:	8f 93       	push	r24
     e1c:	9f 93       	push	r25
     e1e:	af 93       	push	r26
     e20:	bf 93       	push	r27
     e22:	ef 93       	push	r30
     e24:	ff 93       	push	r31
     e26:	80 91 1e 01 	lds	r24, 0x011E	; 0x80011e <__data_end>
     e2a:	90 91 1f 01 	lds	r25, 0x011F	; 0x80011f <__data_end+0x1>
     e2e:	ac 01       	movw	r20, r24
     e30:	09 2e       	mov	r0, r25
     e32:	00 0c       	add	r0, r0
     e34:	66 0b       	sbc	r22, r22
     e36:	77 0b       	sbc	r23, r23
     e38:	9a 01       	movw	r18, r20
     e3a:	11 27       	eor	r17, r17
     e3c:	00 27       	eor	r16, r16
     e3e:	40 91 84 00 	lds	r20, 0x0084	; 0x800084 <__TEXT_REGION_LENGTH__+0x7fc084>
     e42:	50 91 85 00 	lds	r21, 0x0085	; 0x800085 <__TEXT_REGION_LENGTH__+0x7fc085>
     e46:	60 e0       	ldi	r22, 0x00	; 0
     e48:	70 e0       	ldi	r23, 0x00	; 0
     e4a:	40 2b       	or	r20, r16
     e4c:	51 2b       	or	r21, r17
     e4e:	62 2b       	or	r22, r18
     e50:	73 2b       	or	r23, r19
     e52:	40 93 20 01 	sts	0x0120, r20	; 0x800120 <timestamp>
     e56:	50 93 21 01 	sts	0x0121, r21	; 0x800121 <timestamp+0x1>
     e5a:	60 93 22 01 	sts	0x0122, r22	; 0x800122 <timestamp+0x2>
     e5e:	70 93 23 01 	sts	0x0123, r23	; 0x800123 <timestamp+0x3>
     e62:	b0 9b       	sbis	0x16, 0	; 22
     e64:	1a c0       	rjmp	.+52     	; 0xe9a <__vector_5+0x9a>
     e66:	01 96       	adiw	r24, 0x01	; 1
     e68:	09 2e       	mov	r0, r25
     e6a:	00 0c       	add	r0, r0
     e6c:	aa 0b       	sbc	r26, r26
     e6e:	bb 0b       	sbc	r27, r27
     e70:	bc 01       	movw	r22, r24
     e72:	55 27       	eor	r21, r21
     e74:	44 27       	eor	r20, r20
     e76:	80 91 84 00 	lds	r24, 0x0084	; 0x800084 <__TEXT_REGION_LENGTH__+0x7fc084>
     e7a:	90 91 85 00 	lds	r25, 0x0085	; 0x800085 <__TEXT_REGION_LENGTH__+0x7fc085>
     e7e:	a0 e0       	ldi	r26, 0x00	; 0
     e80:	b0 e0       	ldi	r27, 0x00	; 0
     e82:	84 2b       	or	r24, r20
     e84:	95 2b       	or	r25, r21
     e86:	a6 2b       	or	r26, r22
     e88:	b7 2b       	or	r27, r23
     e8a:	80 93 20 01 	sts	0x0120, r24	; 0x800120 <timestamp>
     e8e:	90 93 21 01 	sts	0x0121, r25	; 0x800121 <timestamp+0x1>
     e92:	a0 93 22 01 	sts	0x0122, r26	; 0x800122 <timestamp+0x2>
     e96:	b0 93 23 01 	sts	0x0123, r27	; 0x800123 <timestamp+0x3>
     e9a:	e0 91 c8 01 	lds	r30, 0x01C8	; 0x8001c8 <mtable+0x8>
     e9e:	f0 91 c9 01 	lds	r31, 0x01C9	; 0x8001c9 <mtable+0x9>
     ea2:	30 97       	sbiw	r30, 0x00	; 0
     ea4:	39 f0       	breq	.+14     	; 0xeb4 <__vector_5+0xb4>
     ea6:	64 e0       	ldi	r22, 0x04	; 4
     ea8:	70 e0       	ldi	r23, 0x00	; 0
     eaa:	80 91 30 01 	lds	r24, 0x0130	; 0x800130 <otable+0x8>
     eae:	90 91 31 01 	lds	r25, 0x0131	; 0x800131 <otable+0x9>
     eb2:	09 95       	icall
     eb4:	0e 94 10 05 	call	0xa20	; 0xa20 <schedule>
     eb8:	ff 91       	pop	r31
     eba:	ef 91       	pop	r30
     ebc:	bf 91       	pop	r27
     ebe:	af 91       	pop	r26
     ec0:	9f 91       	pop	r25
     ec2:	8f 91       	pop	r24
     ec4:	7f 91       	pop	r23
     ec6:	6f 91       	pop	r22
     ec8:	5f 91       	pop	r21
     eca:	4f 91       	pop	r20
     ecc:	3f 91       	pop	r19
     ece:	2f 91       	pop	r18
     ed0:	1f 91       	pop	r17
     ed2:	0f 91       	pop	r16
     ed4:	0f 90       	pop	r0
     ed6:	0f be       	out	0x3f, r0	; 63
     ed8:	0f 90       	pop	r0
     eda:	1f 90       	pop	r1
     edc:	18 95       	reti

00000ede <__vector_10>:
     ede:	1f 92       	push	r1
     ee0:	0f 92       	push	r0
     ee2:	0f b6       	in	r0, 0x3f	; 63
     ee4:	0f 92       	push	r0
     ee6:	11 24       	eor	r1, r1
     ee8:	0f 93       	push	r16
     eea:	1f 93       	push	r17
     eec:	2f 93       	push	r18
     eee:	3f 93       	push	r19
     ef0:	4f 93       	push	r20
     ef2:	5f 93       	push	r21
     ef4:	6f 93       	push	r22
     ef6:	7f 93       	push	r23
     ef8:	8f 93       	push	r24
     efa:	9f 93       	push	r25
     efc:	af 93       	push	r26
     efe:	bf 93       	push	r27
     f00:	ef 93       	push	r30
     f02:	ff 93       	push	r31
     f04:	80 91 1e 01 	lds	r24, 0x011E	; 0x80011e <__data_end>
     f08:	90 91 1f 01 	lds	r25, 0x011F	; 0x80011f <__data_end+0x1>
     f0c:	ac 01       	movw	r20, r24
     f0e:	09 2e       	mov	r0, r25
     f10:	00 0c       	add	r0, r0
     f12:	66 0b       	sbc	r22, r22
     f14:	77 0b       	sbc	r23, r23
     f16:	9a 01       	movw	r18, r20
     f18:	11 27       	eor	r17, r17
     f1a:	00 27       	eor	r16, r16
     f1c:	40 91 84 00 	lds	r20, 0x0084	; 0x800084 <__TEXT_REGION_LENGTH__+0x7fc084>
     f20:	50 91 85 00 	lds	r21, 0x0085	; 0x800085 <__TEXT_REGION_LENGTH__+0x7fc085>
     f24:	60 e0       	ldi	r22, 0x00	; 0
     f26:	70 e0       	ldi	r23, 0x00	; 0
     f28:	40 2b       	or	r20, r16
     f2a:	51 2b       	or	r21, r17
     f2c:	62 2b       	or	r22, r18
     f2e:	73 2b       	or	r23, r19
     f30:	40 93 20 01 	sts	0x0120, r20	; 0x800120 <timestamp>
     f34:	50 93 21 01 	sts	0x0121, r21	; 0x800121 <timestamp+0x1>
     f38:	60 93 22 01 	sts	0x0122, r22	; 0x800122 <timestamp+0x2>
     f3c:	70 93 23 01 	sts	0x0123, r23	; 0x800123 <timestamp+0x3>
     f40:	b0 9b       	sbis	0x16, 0	; 22
     f42:	1a c0       	rjmp	.+52     	; 0xf78 <__vector_10+0x9a>
     f44:	01 96       	adiw	r24, 0x01	; 1
     f46:	09 2e       	mov	r0, r25
     f48:	00 0c       	add	r0, r0
     f4a:	aa 0b       	sbc	r26, r26
     f4c:	bb 0b       	sbc	r27, r27
     f4e:	bc 01       	movw	r22, r24
     f50:	55 27       	eor	r21, r21
     f52:	44 27       	eor	r20, r20
     f54:	80 91 84 00 	lds	r24, 0x0084	; 0x800084 <__TEXT_REGION_LENGTH__+0x7fc084>
     f58:	90 91 85 00 	lds	r25, 0x0085	; 0x800085 <__TEXT_REGION_LENGTH__+0x7fc085>
     f5c:	a0 e0       	ldi	r26, 0x00	; 0
     f5e:	b0 e0       	ldi	r27, 0x00	; 0
     f60:	84 2b       	or	r24, r20
     f62:	95 2b       	or	r25, r21
     f64:	a6 2b       	or	r26, r22
     f66:	b7 2b       	or	r27, r23
     f68:	80 93 20 01 	sts	0x0120, r24	; 0x800120 <timestamp>
     f6c:	90 93 21 01 	sts	0x0121, r25	; 0x800121 <timestamp+0x1>
     f70:	a0 93 22 01 	sts	0x0122, r26	; 0x800122 <timestamp+0x2>
     f74:	b0 93 23 01 	sts	0x0123, r27	; 0x800123 <timestamp+0x3>
     f78:	e0 91 ca 01 	lds	r30, 0x01CA	; 0x8001ca <mtable+0xa>
     f7c:	f0 91 cb 01 	lds	r31, 0x01CB	; 0x8001cb <mtable+0xb>
     f80:	30 97       	sbiw	r30, 0x00	; 0
     f82:	39 f0       	breq	.+14     	; 0xf92 <__vector_10+0xb4>
     f84:	65 e0       	ldi	r22, 0x05	; 5
     f86:	70 e0       	ldi	r23, 0x00	; 0
     f88:	80 91 32 01 	lds	r24, 0x0132	; 0x800132 <otable+0xa>
     f8c:	90 91 33 01 	lds	r25, 0x0133	; 0x800133 <otable+0xb>
     f90:	09 95       	icall
     f92:	0e 94 10 05 	call	0xa20	; 0xa20 <schedule>
     f96:	ff 91       	pop	r31
     f98:	ef 91       	pop	r30
     f9a:	bf 91       	pop	r27
     f9c:	af 91       	pop	r26
     f9e:	9f 91       	pop	r25
     fa0:	8f 91       	pop	r24
     fa2:	7f 91       	pop	r23
     fa4:	6f 91       	pop	r22
     fa6:	5f 91       	pop	r21
     fa8:	4f 91       	pop	r20
     faa:	3f 91       	pop	r19
     fac:	2f 91       	pop	r18
     fae:	1f 91       	pop	r17
     fb0:	0f 91       	pop	r16
     fb2:	0f 90       	pop	r0
     fb4:	0f be       	out	0x3f, r0	; 63
     fb6:	0f 90       	pop	r0
     fb8:	1f 90       	pop	r1
     fba:	18 95       	reti

00000fbc <__vector_11>:
     fbc:	1f 92       	push	r1
     fbe:	0f 92       	push	r0
     fc0:	0f b6       	in	r0, 0x3f	; 63
     fc2:	0f 92       	push	r0
     fc4:	11 24       	eor	r1, r1
     fc6:	0f 93       	push	r16
     fc8:	1f 93       	push	r17
     fca:	2f 93       	push	r18
     fcc:	3f 93       	push	r19
     fce:	4f 93       	push	r20
     fd0:	5f 93       	push	r21
     fd2:	6f 93       	push	r22
     fd4:	7f 93       	push	r23
     fd6:	8f 93       	push	r24
     fd8:	9f 93       	push	r25
     fda:	af 93       	push	r26
     fdc:	bf 93       	push	r27
     fde:	ef 93       	push	r30
     fe0:	ff 93       	push	r31
     fe2:	80 91 1e 01 	lds	r24, 0x011E	; 0x80011e <__data_end>
     fe6:	90 91 1f 01 	lds	r25, 0x011F	; 0x80011f <__data_end+0x1>
     fea:	ac 01       	movw	r20, r24
     fec:	09 2e       	mov	r0, r25
     fee:	00 0c       	add	r0, r0
     ff0:	66 0b       	sbc	r22, r22
     ff2:	77 0b       	sbc	r23, r23
     ff4:	9a 01       	movw	r18, r20
     ff6:	11 27       	eor	r17, r17
     ff8:	00 27       	eor	r16, r16
     ffa:	40 91 84 00 	lds	r20, 0x0084	; 0x800084 <__TEXT_REGION_LENGTH__+0x7fc084>
     ffe:	50 91 85 00 	lds	r21, 0x0085	; 0x800085 <__TEXT_REGION_LENGTH__+0x7fc085>
    1002:	60 e0       	ldi	r22, 0x00	; 0
    1004:	70 e0       	ldi	r23, 0x00	; 0
    1006:	40 2b       	or	r20, r16
    1008:	51 2b       	or	r21, r17
    100a:	62 2b       	or	r22, r18
    100c:	73 2b       	or	r23, r19
    100e:	40 93 20 01 	sts	0x0120, r20	; 0x800120 <timestamp>
    1012:	50 93 21 01 	sts	0x0121, r21	; 0x800121 <timestamp+0x1>
    1016:	60 93 22 01 	sts	0x0122, r22	; 0x800122 <timestamp+0x2>
    101a:	70 93 23 01 	sts	0x0123, r23	; 0x800123 <timestamp+0x3>
    101e:	b0 9b       	sbis	0x16, 0	; 22
    1020:	1a c0       	rjmp	.+52     	; 0x1056 <__vector_11+0x9a>
    1022:	01 96       	adiw	r24, 0x01	; 1
    1024:	09 2e       	mov	r0, r25
    1026:	00 0c       	add	r0, r0
    1028:	aa 0b       	sbc	r26, r26
    102a:	bb 0b       	sbc	r27, r27
    102c:	bc 01       	movw	r22, r24
    102e:	55 27       	eor	r21, r21
    1030:	44 27       	eor	r20, r20
    1032:	80 91 84 00 	lds	r24, 0x0084	; 0x800084 <__TEXT_REGION_LENGTH__+0x7fc084>
    1036:	90 91 85 00 	lds	r25, 0x0085	; 0x800085 <__TEXT_REGION_LENGTH__+0x7fc085>
    103a:	a0 e0       	ldi	r26, 0x00	; 0
    103c:	b0 e0       	ldi	r27, 0x00	; 0
    103e:	84 2b       	or	r24, r20
    1040:	95 2b       	or	r25, r21
    1042:	a6 2b       	or	r26, r22
    1044:	b7 2b       	or	r27, r23
    1046:	80 93 20 01 	sts	0x0120, r24	; 0x800120 <timestamp>
    104a:	90 93 21 01 	sts	0x0121, r25	; 0x800121 <timestamp+0x1>
    104e:	a0 93 22 01 	sts	0x0122, r26	; 0x800122 <timestamp+0x2>
    1052:	b0 93 23 01 	sts	0x0123, r27	; 0x800123 <timestamp+0x3>
    1056:	e0 91 cc 01 	lds	r30, 0x01CC	; 0x8001cc <mtable+0xc>
    105a:	f0 91 cd 01 	lds	r31, 0x01CD	; 0x8001cd <mtable+0xd>
    105e:	30 97       	sbiw	r30, 0x00	; 0
    1060:	39 f0       	breq	.+14     	; 0x1070 <__vector_11+0xb4>
    1062:	66 e0       	ldi	r22, 0x06	; 6
    1064:	70 e0       	ldi	r23, 0x00	; 0
    1066:	80 91 34 01 	lds	r24, 0x0134	; 0x800134 <otable+0xc>
    106a:	90 91 35 01 	lds	r25, 0x0135	; 0x800135 <otable+0xd>
    106e:	09 95       	icall
    1070:	0e 94 10 05 	call	0xa20	; 0xa20 <schedule>
    1074:	ff 91       	pop	r31
    1076:	ef 91       	pop	r30
    1078:	bf 91       	pop	r27
    107a:	af 91       	pop	r26
    107c:	9f 91       	pop	r25
    107e:	8f 91       	pop	r24
    1080:	7f 91       	pop	r23
    1082:	6f 91       	pop	r22
    1084:	5f 91       	pop	r21
    1086:	4f 91       	pop	r20
    1088:	3f 91       	pop	r19
    108a:	2f 91       	pop	r18
    108c:	1f 91       	pop	r17
    108e:	0f 91       	pop	r16
    1090:	0f 90       	pop	r0
    1092:	0f be       	out	0x3f, r0	; 63
    1094:	0f 90       	pop	r0
    1096:	1f 90       	pop	r1
    1098:	18 95       	reti

0000109a <__vector_12>:
    109a:	1f 92       	push	r1
    109c:	0f 92       	push	r0
    109e:	0f b6       	in	r0, 0x3f	; 63
    10a0:	0f 92       	push	r0
    10a2:	11 24       	eor	r1, r1
    10a4:	0f 93       	push	r16
    10a6:	1f 93       	push	r17
    10a8:	2f 93       	push	r18
    10aa:	3f 93       	push	r19
    10ac:	4f 93       	push	r20
    10ae:	5f 93       	push	r21
    10b0:	6f 93       	push	r22
    10b2:	7f 93       	push	r23
    10b4:	8f 93       	push	r24
    10b6:	9f 93       	push	r25
    10b8:	af 93       	push	r26
    10ba:	bf 93       	push	r27
    10bc:	ef 93       	push	r30
    10be:	ff 93       	push	r31
    10c0:	80 91 1e 01 	lds	r24, 0x011E	; 0x80011e <__data_end>
    10c4:	90 91 1f 01 	lds	r25, 0x011F	; 0x80011f <__data_end+0x1>
    10c8:	ac 01       	movw	r20, r24
    10ca:	09 2e       	mov	r0, r25
    10cc:	00 0c       	add	r0, r0
    10ce:	66 0b       	sbc	r22, r22
    10d0:	77 0b       	sbc	r23, r23
    10d2:	9a 01       	movw	r18, r20
    10d4:	11 27       	eor	r17, r17
    10d6:	00 27       	eor	r16, r16
    10d8:	40 91 84 00 	lds	r20, 0x0084	; 0x800084 <__TEXT_REGION_LENGTH__+0x7fc084>
    10dc:	50 91 85 00 	lds	r21, 0x0085	; 0x800085 <__TEXT_REGION_LENGTH__+0x7fc085>
    10e0:	60 e0       	ldi	r22, 0x00	; 0
    10e2:	70 e0       	ldi	r23, 0x00	; 0
    10e4:	40 2b       	or	r20, r16
    10e6:	51 2b       	or	r21, r17
    10e8:	62 2b       	or	r22, r18
    10ea:	73 2b       	or	r23, r19
    10ec:	40 93 20 01 	sts	0x0120, r20	; 0x800120 <timestamp>
    10f0:	50 93 21 01 	sts	0x0121, r21	; 0x800121 <timestamp+0x1>
    10f4:	60 93 22 01 	sts	0x0122, r22	; 0x800122 <timestamp+0x2>
    10f8:	70 93 23 01 	sts	0x0123, r23	; 0x800123 <timestamp+0x3>
    10fc:	b0 9b       	sbis	0x16, 0	; 22
    10fe:	1a c0       	rjmp	.+52     	; 0x1134 <__vector_12+0x9a>
    1100:	01 96       	adiw	r24, 0x01	; 1
    1102:	09 2e       	mov	r0, r25
    1104:	00 0c       	add	r0, r0
    1106:	aa 0b       	sbc	r26, r26
    1108:	bb 0b       	sbc	r27, r27
    110a:	bc 01       	movw	r22, r24
    110c:	55 27       	eor	r21, r21
    110e:	44 27       	eor	r20, r20
    1110:	80 91 84 00 	lds	r24, 0x0084	; 0x800084 <__TEXT_REGION_LENGTH__+0x7fc084>
    1114:	90 91 85 00 	lds	r25, 0x0085	; 0x800085 <__TEXT_REGION_LENGTH__+0x7fc085>
    1118:	a0 e0       	ldi	r26, 0x00	; 0
    111a:	b0 e0       	ldi	r27, 0x00	; 0
    111c:	84 2b       	or	r24, r20
    111e:	95 2b       	or	r25, r21
    1120:	a6 2b       	or	r26, r22
    1122:	b7 2b       	or	r27, r23
    1124:	80 93 20 01 	sts	0x0120, r24	; 0x800120 <timestamp>
    1128:	90 93 21 01 	sts	0x0121, r25	; 0x800121 <timestamp+0x1>
    112c:	a0 93 22 01 	sts	0x0122, r26	; 0x800122 <timestamp+0x2>
    1130:	b0 93 23 01 	sts	0x0123, r27	; 0x800123 <timestamp+0x3>
    1134:	e0 91 ce 01 	lds	r30, 0x01CE	; 0x8001ce <mtable+0xe>
    1138:	f0 91 cf 01 	lds	r31, 0x01CF	; 0x8001cf <mtable+0xf>
    113c:	30 97       	sbiw	r30, 0x00	; 0
    113e:	39 f0       	breq	.+14     	; 0x114e <__vector_12+0xb4>
    1140:	67 e0       	ldi	r22, 0x07	; 7
    1142:	70 e0       	ldi	r23, 0x00	; 0
    1144:	80 91 36 01 	lds	r24, 0x0136	; 0x800136 <otable+0xe>
    1148:	90 91 37 01 	lds	r25, 0x0137	; 0x800137 <otable+0xf>
    114c:	09 95       	icall
    114e:	0e 94 10 05 	call	0xa20	; 0xa20 <schedule>
    1152:	ff 91       	pop	r31
    1154:	ef 91       	pop	r30
    1156:	bf 91       	pop	r27
    1158:	af 91       	pop	r26
    115a:	9f 91       	pop	r25
    115c:	8f 91       	pop	r24
    115e:	7f 91       	pop	r23
    1160:	6f 91       	pop	r22
    1162:	5f 91       	pop	r21
    1164:	4f 91       	pop	r20
    1166:	3f 91       	pop	r19
    1168:	2f 91       	pop	r18
    116a:	1f 91       	pop	r17
    116c:	0f 91       	pop	r16
    116e:	0f 90       	pop	r0
    1170:	0f be       	out	0x3f, r0	; 63
    1172:	0f 90       	pop	r0
    1174:	1f 90       	pop	r1
    1176:	18 95       	reti

00001178 <__vector_13>:
    1178:	1f 92       	push	r1
    117a:	0f 92       	push	r0
    117c:	0f b6       	in	r0, 0x3f	; 63
    117e:	0f 92       	push	r0
    1180:	11 24       	eor	r1, r1
    1182:	0f 93       	push	r16
    1184:	1f 93       	push	r17
    1186:	2f 93       	push	r18
    1188:	3f 93       	push	r19
    118a:	4f 93       	push	r20
    118c:	5f 93       	push	r21
    118e:	6f 93       	push	r22
    1190:	7f 93       	push	r23
    1192:	8f 93       	push	r24
    1194:	9f 93       	push	r25
    1196:	af 93       	push	r26
    1198:	bf 93       	push	r27
    119a:	ef 93       	push	r30
    119c:	ff 93       	push	r31
    119e:	80 91 1e 01 	lds	r24, 0x011E	; 0x80011e <__data_end>
    11a2:	90 91 1f 01 	lds	r25, 0x011F	; 0x80011f <__data_end+0x1>
    11a6:	ac 01       	movw	r20, r24
    11a8:	09 2e       	mov	r0, r25
    11aa:	00 0c       	add	r0, r0
    11ac:	66 0b       	sbc	r22, r22
    11ae:	77 0b       	sbc	r23, r23
    11b0:	9a 01       	movw	r18, r20
    11b2:	11 27       	eor	r17, r17
    11b4:	00 27       	eor	r16, r16
    11b6:	40 91 84 00 	lds	r20, 0x0084	; 0x800084 <__TEXT_REGION_LENGTH__+0x7fc084>
    11ba:	50 91 85 00 	lds	r21, 0x0085	; 0x800085 <__TEXT_REGION_LENGTH__+0x7fc085>
    11be:	60 e0       	ldi	r22, 0x00	; 0
    11c0:	70 e0       	ldi	r23, 0x00	; 0
    11c2:	40 2b       	or	r20, r16
    11c4:	51 2b       	or	r21, r17
    11c6:	62 2b       	or	r22, r18
    11c8:	73 2b       	or	r23, r19
    11ca:	40 93 20 01 	sts	0x0120, r20	; 0x800120 <timestamp>
    11ce:	50 93 21 01 	sts	0x0121, r21	; 0x800121 <timestamp+0x1>
    11d2:	60 93 22 01 	sts	0x0122, r22	; 0x800122 <timestamp+0x2>
    11d6:	70 93 23 01 	sts	0x0123, r23	; 0x800123 <timestamp+0x3>
    11da:	b0 9b       	sbis	0x16, 0	; 22
    11dc:	1a c0       	rjmp	.+52     	; 0x1212 <__vector_13+0x9a>
    11de:	01 96       	adiw	r24, 0x01	; 1
    11e0:	09 2e       	mov	r0, r25
    11e2:	00 0c       	add	r0, r0
    11e4:	aa 0b       	sbc	r26, r26
    11e6:	bb 0b       	sbc	r27, r27
    11e8:	bc 01       	movw	r22, r24
    11ea:	55 27       	eor	r21, r21
    11ec:	44 27       	eor	r20, r20
    11ee:	80 91 84 00 	lds	r24, 0x0084	; 0x800084 <__TEXT_REGION_LENGTH__+0x7fc084>
    11f2:	90 91 85 00 	lds	r25, 0x0085	; 0x800085 <__TEXT_REGION_LENGTH__+0x7fc085>
    11f6:	a0 e0       	ldi	r26, 0x00	; 0
    11f8:	b0 e0       	ldi	r27, 0x00	; 0
    11fa:	84 2b       	or	r24, r20
    11fc:	95 2b       	or	r25, r21
    11fe:	a6 2b       	or	r26, r22
    1200:	b7 2b       	or	r27, r23
    1202:	80 93 20 01 	sts	0x0120, r24	; 0x800120 <timestamp>
    1206:	90 93 21 01 	sts	0x0121, r25	; 0x800121 <timestamp+0x1>
    120a:	a0 93 22 01 	sts	0x0122, r26	; 0x800122 <timestamp+0x2>
    120e:	b0 93 23 01 	sts	0x0123, r27	; 0x800123 <timestamp+0x3>
    1212:	e0 91 d0 01 	lds	r30, 0x01D0	; 0x8001d0 <mtable+0x10>
    1216:	f0 91 d1 01 	lds	r31, 0x01D1	; 0x8001d1 <mtable+0x11>
    121a:	30 97       	sbiw	r30, 0x00	; 0
    121c:	39 f0       	breq	.+14     	; 0x122c <__vector_13+0xb4>
    121e:	68 e0       	ldi	r22, 0x08	; 8
    1220:	70 e0       	ldi	r23, 0x00	; 0
    1222:	80 91 38 01 	lds	r24, 0x0138	; 0x800138 <otable+0x10>
    1226:	90 91 39 01 	lds	r25, 0x0139	; 0x800139 <otable+0x11>
    122a:	09 95       	icall
    122c:	0e 94 10 05 	call	0xa20	; 0xa20 <schedule>
    1230:	ff 91       	pop	r31
    1232:	ef 91       	pop	r30
    1234:	bf 91       	pop	r27
    1236:	af 91       	pop	r26
    1238:	9f 91       	pop	r25
    123a:	8f 91       	pop	r24
    123c:	7f 91       	pop	r23
    123e:	6f 91       	pop	r22
    1240:	5f 91       	pop	r21
    1242:	4f 91       	pop	r20
    1244:	3f 91       	pop	r19
    1246:	2f 91       	pop	r18
    1248:	1f 91       	pop	r17
    124a:	0f 91       	pop	r16
    124c:	0f 90       	pop	r0
    124e:	0f be       	out	0x3f, r0	; 63
    1250:	0f 90       	pop	r0
    1252:	1f 90       	pop	r1
    1254:	18 95       	reti

00001256 <__vector_14>:
    1256:	1f 92       	push	r1
    1258:	0f 92       	push	r0
    125a:	0f b6       	in	r0, 0x3f	; 63
    125c:	0f 92       	push	r0
    125e:	11 24       	eor	r1, r1
    1260:	0f 93       	push	r16
    1262:	1f 93       	push	r17
    1264:	2f 93       	push	r18
    1266:	3f 93       	push	r19
    1268:	4f 93       	push	r20
    126a:	5f 93       	push	r21
    126c:	6f 93       	push	r22
    126e:	7f 93       	push	r23
    1270:	8f 93       	push	r24
    1272:	9f 93       	push	r25
    1274:	af 93       	push	r26
    1276:	bf 93       	push	r27
    1278:	ef 93       	push	r30
    127a:	ff 93       	push	r31
    127c:	80 91 1e 01 	lds	r24, 0x011E	; 0x80011e <__data_end>
    1280:	90 91 1f 01 	lds	r25, 0x011F	; 0x80011f <__data_end+0x1>
    1284:	ac 01       	movw	r20, r24
    1286:	09 2e       	mov	r0, r25
    1288:	00 0c       	add	r0, r0
    128a:	66 0b       	sbc	r22, r22
    128c:	77 0b       	sbc	r23, r23
    128e:	9a 01       	movw	r18, r20
    1290:	11 27       	eor	r17, r17
    1292:	00 27       	eor	r16, r16
    1294:	40 91 84 00 	lds	r20, 0x0084	; 0x800084 <__TEXT_REGION_LENGTH__+0x7fc084>
    1298:	50 91 85 00 	lds	r21, 0x0085	; 0x800085 <__TEXT_REGION_LENGTH__+0x7fc085>
    129c:	60 e0       	ldi	r22, 0x00	; 0
    129e:	70 e0       	ldi	r23, 0x00	; 0
    12a0:	40 2b       	or	r20, r16
    12a2:	51 2b       	or	r21, r17
    12a4:	62 2b       	or	r22, r18
    12a6:	73 2b       	or	r23, r19
    12a8:	40 93 20 01 	sts	0x0120, r20	; 0x800120 <timestamp>
    12ac:	50 93 21 01 	sts	0x0121, r21	; 0x800121 <timestamp+0x1>
    12b0:	60 93 22 01 	sts	0x0122, r22	; 0x800122 <timestamp+0x2>
    12b4:	70 93 23 01 	sts	0x0123, r23	; 0x800123 <timestamp+0x3>
    12b8:	b0 9b       	sbis	0x16, 0	; 22
    12ba:	1a c0       	rjmp	.+52     	; 0x12f0 <__vector_14+0x9a>
    12bc:	01 96       	adiw	r24, 0x01	; 1
    12be:	09 2e       	mov	r0, r25
    12c0:	00 0c       	add	r0, r0
    12c2:	aa 0b       	sbc	r26, r26
    12c4:	bb 0b       	sbc	r27, r27
    12c6:	bc 01       	movw	r22, r24
    12c8:	55 27       	eor	r21, r21
    12ca:	44 27       	eor	r20, r20
    12cc:	80 91 84 00 	lds	r24, 0x0084	; 0x800084 <__TEXT_REGION_LENGTH__+0x7fc084>
    12d0:	90 91 85 00 	lds	r25, 0x0085	; 0x800085 <__TEXT_REGION_LENGTH__+0x7fc085>
    12d4:	a0 e0       	ldi	r26, 0x00	; 0
    12d6:	b0 e0       	ldi	r27, 0x00	; 0
    12d8:	84 2b       	or	r24, r20
    12da:	95 2b       	or	r25, r21
    12dc:	a6 2b       	or	r26, r22
    12de:	b7 2b       	or	r27, r23
    12e0:	80 93 20 01 	sts	0x0120, r24	; 0x800120 <timestamp>
    12e4:	90 93 21 01 	sts	0x0121, r25	; 0x800121 <timestamp+0x1>
    12e8:	a0 93 22 01 	sts	0x0122, r26	; 0x800122 <timestamp+0x2>
    12ec:	b0 93 23 01 	sts	0x0123, r27	; 0x800123 <timestamp+0x3>
    12f0:	e0 91 d2 01 	lds	r30, 0x01D2	; 0x8001d2 <mtable+0x12>
    12f4:	f0 91 d3 01 	lds	r31, 0x01D3	; 0x8001d3 <mtable+0x13>
    12f8:	30 97       	sbiw	r30, 0x00	; 0
    12fa:	39 f0       	breq	.+14     	; 0x130a <__vector_14+0xb4>
    12fc:	69 e0       	ldi	r22, 0x09	; 9
    12fe:	70 e0       	ldi	r23, 0x00	; 0
    1300:	80 91 3a 01 	lds	r24, 0x013A	; 0x80013a <otable+0x12>
    1304:	90 91 3b 01 	lds	r25, 0x013B	; 0x80013b <otable+0x13>
    1308:	09 95       	icall
    130a:	0e 94 10 05 	call	0xa20	; 0xa20 <schedule>
    130e:	ff 91       	pop	r31
    1310:	ef 91       	pop	r30
    1312:	bf 91       	pop	r27
    1314:	af 91       	pop	r26
    1316:	9f 91       	pop	r25
    1318:	8f 91       	pop	r24
    131a:	7f 91       	pop	r23
    131c:	6f 91       	pop	r22
    131e:	5f 91       	pop	r21
    1320:	4f 91       	pop	r20
    1322:	3f 91       	pop	r19
    1324:	2f 91       	pop	r18
    1326:	1f 91       	pop	r17
    1328:	0f 91       	pop	r16
    132a:	0f 90       	pop	r0
    132c:	0f be       	out	0x3f, r0	; 63
    132e:	0f 90       	pop	r0
    1330:	1f 90       	pop	r1
    1332:	18 95       	reti

00001334 <__vector_15>:
    1334:	1f 92       	push	r1
    1336:	0f 92       	push	r0
    1338:	0f b6       	in	r0, 0x3f	; 63
    133a:	0f 92       	push	r0
    133c:	11 24       	eor	r1, r1
    133e:	0f 93       	push	r16
    1340:	1f 93       	push	r17
    1342:	2f 93       	push	r18
    1344:	3f 93       	push	r19
    1346:	4f 93       	push	r20
    1348:	5f 93       	push	r21
    134a:	6f 93       	push	r22
    134c:	7f 93       	push	r23
    134e:	8f 93       	push	r24
    1350:	9f 93       	push	r25
    1352:	af 93       	push	r26
    1354:	bf 93       	push	r27
    1356:	ef 93       	push	r30
    1358:	ff 93       	push	r31
    135a:	80 91 1e 01 	lds	r24, 0x011E	; 0x80011e <__data_end>
    135e:	90 91 1f 01 	lds	r25, 0x011F	; 0x80011f <__data_end+0x1>
    1362:	ac 01       	movw	r20, r24
    1364:	09 2e       	mov	r0, r25
    1366:	00 0c       	add	r0, r0
    1368:	66 0b       	sbc	r22, r22
    136a:	77 0b       	sbc	r23, r23
    136c:	9a 01       	movw	r18, r20
    136e:	11 27       	eor	r17, r17
    1370:	00 27       	eor	r16, r16
    1372:	40 91 84 00 	lds	r20, 0x0084	; 0x800084 <__TEXT_REGION_LENGTH__+0x7fc084>
    1376:	50 91 85 00 	lds	r21, 0x0085	; 0x800085 <__TEXT_REGION_LENGTH__+0x7fc085>
    137a:	60 e0       	ldi	r22, 0x00	; 0
    137c:	70 e0       	ldi	r23, 0x00	; 0
    137e:	40 2b       	or	r20, r16
    1380:	51 2b       	or	r21, r17
    1382:	62 2b       	or	r22, r18
    1384:	73 2b       	or	r23, r19
    1386:	40 93 20 01 	sts	0x0120, r20	; 0x800120 <timestamp>
    138a:	50 93 21 01 	sts	0x0121, r21	; 0x800121 <timestamp+0x1>
    138e:	60 93 22 01 	sts	0x0122, r22	; 0x800122 <timestamp+0x2>
    1392:	70 93 23 01 	sts	0x0123, r23	; 0x800123 <timestamp+0x3>
    1396:	b0 9b       	sbis	0x16, 0	; 22
    1398:	1a c0       	rjmp	.+52     	; 0x13ce <__vector_15+0x9a>
    139a:	01 96       	adiw	r24, 0x01	; 1
    139c:	09 2e       	mov	r0, r25
    139e:	00 0c       	add	r0, r0
    13a0:	aa 0b       	sbc	r26, r26
    13a2:	bb 0b       	sbc	r27, r27
    13a4:	bc 01       	movw	r22, r24
    13a6:	55 27       	eor	r21, r21
    13a8:	44 27       	eor	r20, r20
    13aa:	80 91 84 00 	lds	r24, 0x0084	; 0x800084 <__TEXT_REGION_LENGTH__+0x7fc084>
    13ae:	90 91 85 00 	lds	r25, 0x0085	; 0x800085 <__TEXT_REGION_LENGTH__+0x7fc085>
    13b2:	a0 e0       	ldi	r26, 0x00	; 0
    13b4:	b0 e0       	ldi	r27, 0x00	; 0
    13b6:	84 2b       	or	r24, r20
    13b8:	95 2b       	or	r25, r21
    13ba:	a6 2b       	or	r26, r22
    13bc:	b7 2b       	or	r27, r23
    13be:	80 93 20 01 	sts	0x0120, r24	; 0x800120 <timestamp>
    13c2:	90 93 21 01 	sts	0x0121, r25	; 0x800121 <timestamp+0x1>
    13c6:	a0 93 22 01 	sts	0x0122, r26	; 0x800122 <timestamp+0x2>
    13ca:	b0 93 23 01 	sts	0x0123, r27	; 0x800123 <timestamp+0x3>
    13ce:	e0 91 d4 01 	lds	r30, 0x01D4	; 0x8001d4 <mtable+0x14>
    13d2:	f0 91 d5 01 	lds	r31, 0x01D5	; 0x8001d5 <mtable+0x15>
    13d6:	30 97       	sbiw	r30, 0x00	; 0
    13d8:	39 f0       	breq	.+14     	; 0x13e8 <__vector_15+0xb4>
    13da:	6a e0       	ldi	r22, 0x0A	; 10
    13dc:	70 e0       	ldi	r23, 0x00	; 0
    13de:	80 91 3c 01 	lds	r24, 0x013C	; 0x80013c <otable+0x14>
    13e2:	90 91 3d 01 	lds	r25, 0x013D	; 0x80013d <otable+0x15>
    13e6:	09 95       	icall
    13e8:	0e 94 10 05 	call	0xa20	; 0xa20 <schedule>
    13ec:	ff 91       	pop	r31
    13ee:	ef 91       	pop	r30
    13f0:	bf 91       	pop	r27
    13f2:	af 91       	pop	r26
    13f4:	9f 91       	pop	r25
    13f6:	8f 91       	pop	r24
    13f8:	7f 91       	pop	r23
    13fa:	6f 91       	pop	r22
    13fc:	5f 91       	pop	r21
    13fe:	4f 91       	pop	r20
    1400:	3f 91       	pop	r19
    1402:	2f 91       	pop	r18
    1404:	1f 91       	pop	r17
    1406:	0f 91       	pop	r16
    1408:	0f 90       	pop	r0
    140a:	0f be       	out	0x3f, r0	; 63
    140c:	0f 90       	pop	r0
    140e:	1f 90       	pop	r1
    1410:	18 95       	reti

00001412 <__vector_16>:
    1412:	1f 92       	push	r1
    1414:	0f 92       	push	r0
    1416:	0f b6       	in	r0, 0x3f	; 63
    1418:	0f 92       	push	r0
    141a:	11 24       	eor	r1, r1
    141c:	0f 93       	push	r16
    141e:	1f 93       	push	r17
    1420:	2f 93       	push	r18
    1422:	3f 93       	push	r19
    1424:	4f 93       	push	r20
    1426:	5f 93       	push	r21
    1428:	6f 93       	push	r22
    142a:	7f 93       	push	r23
    142c:	8f 93       	push	r24
    142e:	9f 93       	push	r25
    1430:	af 93       	push	r26
    1432:	bf 93       	push	r27
    1434:	ef 93       	push	r30
    1436:	ff 93       	push	r31
    1438:	80 91 1e 01 	lds	r24, 0x011E	; 0x80011e <__data_end>
    143c:	90 91 1f 01 	lds	r25, 0x011F	; 0x80011f <__data_end+0x1>
    1440:	ac 01       	movw	r20, r24
    1442:	09 2e       	mov	r0, r25
    1444:	00 0c       	add	r0, r0
    1446:	66 0b       	sbc	r22, r22
    1448:	77 0b       	sbc	r23, r23
    144a:	9a 01       	movw	r18, r20
    144c:	11 27       	eor	r17, r17
    144e:	00 27       	eor	r16, r16
    1450:	40 91 84 00 	lds	r20, 0x0084	; 0x800084 <__TEXT_REGION_LENGTH__+0x7fc084>
    1454:	50 91 85 00 	lds	r21, 0x0085	; 0x800085 <__TEXT_REGION_LENGTH__+0x7fc085>
    1458:	60 e0       	ldi	r22, 0x00	; 0
    145a:	70 e0       	ldi	r23, 0x00	; 0
    145c:	40 2b       	or	r20, r16
    145e:	51 2b       	or	r21, r17
    1460:	62 2b       	or	r22, r18
    1462:	73 2b       	or	r23, r19
    1464:	40 93 20 01 	sts	0x0120, r20	; 0x800120 <timestamp>
    1468:	50 93 21 01 	sts	0x0121, r21	; 0x800121 <timestamp+0x1>
    146c:	60 93 22 01 	sts	0x0122, r22	; 0x800122 <timestamp+0x2>
    1470:	70 93 23 01 	sts	0x0123, r23	; 0x800123 <timestamp+0x3>
    1474:	b0 9b       	sbis	0x16, 0	; 22
    1476:	1a c0       	rjmp	.+52     	; 0x14ac <__vector_16+0x9a>
    1478:	01 96       	adiw	r24, 0x01	; 1
    147a:	09 2e       	mov	r0, r25
    147c:	00 0c       	add	r0, r0
    147e:	aa 0b       	sbc	r26, r26
    1480:	bb 0b       	sbc	r27, r27
    1482:	bc 01       	movw	r22, r24
    1484:	55 27       	eor	r21, r21
    1486:	44 27       	eor	r20, r20
    1488:	80 91 84 00 	lds	r24, 0x0084	; 0x800084 <__TEXT_REGION_LENGTH__+0x7fc084>
    148c:	90 91 85 00 	lds	r25, 0x0085	; 0x800085 <__TEXT_REGION_LENGTH__+0x7fc085>
    1490:	a0 e0       	ldi	r26, 0x00	; 0
    1492:	b0 e0       	ldi	r27, 0x00	; 0
    1494:	84 2b       	or	r24, r20
    1496:	95 2b       	or	r25, r21
    1498:	a6 2b       	or	r26, r22
    149a:	b7 2b       	or	r27, r23
    149c:	80 93 20 01 	sts	0x0120, r24	; 0x800120 <timestamp>
    14a0:	90 93 21 01 	sts	0x0121, r25	; 0x800121 <timestamp+0x1>
    14a4:	a0 93 22 01 	sts	0x0122, r26	; 0x800122 <timestamp+0x2>
    14a8:	b0 93 23 01 	sts	0x0123, r27	; 0x800123 <timestamp+0x3>
    14ac:	e0 91 d6 01 	lds	r30, 0x01D6	; 0x8001d6 <mtable+0x16>
    14b0:	f0 91 d7 01 	lds	r31, 0x01D7	; 0x8001d7 <mtable+0x17>
    14b4:	30 97       	sbiw	r30, 0x00	; 0
    14b6:	39 f0       	breq	.+14     	; 0x14c6 <__vector_16+0xb4>
    14b8:	6b e0       	ldi	r22, 0x0B	; 11
    14ba:	70 e0       	ldi	r23, 0x00	; 0
    14bc:	80 91 3e 01 	lds	r24, 0x013E	; 0x80013e <otable+0x16>
    14c0:	90 91 3f 01 	lds	r25, 0x013F	; 0x80013f <otable+0x17>
    14c4:	09 95       	icall
    14c6:	0e 94 10 05 	call	0xa20	; 0xa20 <schedule>
    14ca:	ff 91       	pop	r31
    14cc:	ef 91       	pop	r30
    14ce:	bf 91       	pop	r27
    14d0:	af 91       	pop	r26
    14d2:	9f 91       	pop	r25
    14d4:	8f 91       	pop	r24
    14d6:	7f 91       	pop	r23
    14d8:	6f 91       	pop	r22
    14da:	5f 91       	pop	r21
    14dc:	4f 91       	pop	r20
    14de:	3f 91       	pop	r19
    14e0:	2f 91       	pop	r18
    14e2:	1f 91       	pop	r17
    14e4:	0f 91       	pop	r16
    14e6:	0f 90       	pop	r0
    14e8:	0f be       	out	0x3f, r0	; 63
    14ea:	0f 90       	pop	r0
    14ec:	1f 90       	pop	r1
    14ee:	18 95       	reti

000014f0 <__vector_17>:
    14f0:	1f 92       	push	r1
    14f2:	0f 92       	push	r0
    14f4:	0f b6       	in	r0, 0x3f	; 63
    14f6:	0f 92       	push	r0
    14f8:	11 24       	eor	r1, r1
    14fa:	0f 93       	push	r16
    14fc:	1f 93       	push	r17
    14fe:	2f 93       	push	r18
    1500:	3f 93       	push	r19
    1502:	4f 93       	push	r20
    1504:	5f 93       	push	r21
    1506:	6f 93       	push	r22
    1508:	7f 93       	push	r23
    150a:	8f 93       	push	r24
    150c:	9f 93       	push	r25
    150e:	af 93       	push	r26
    1510:	bf 93       	push	r27
    1512:	ef 93       	push	r30
    1514:	ff 93       	push	r31
    1516:	80 91 1e 01 	lds	r24, 0x011E	; 0x80011e <__data_end>
    151a:	90 91 1f 01 	lds	r25, 0x011F	; 0x80011f <__data_end+0x1>
    151e:	ac 01       	movw	r20, r24
    1520:	09 2e       	mov	r0, r25
    1522:	00 0c       	add	r0, r0
    1524:	66 0b       	sbc	r22, r22
    1526:	77 0b       	sbc	r23, r23
    1528:	9a 01       	movw	r18, r20
    152a:	11 27       	eor	r17, r17
    152c:	00 27       	eor	r16, r16
    152e:	40 91 84 00 	lds	r20, 0x0084	; 0x800084 <__TEXT_REGION_LENGTH__+0x7fc084>
    1532:	50 91 85 00 	lds	r21, 0x0085	; 0x800085 <__TEXT_REGION_LENGTH__+0x7fc085>
    1536:	60 e0       	ldi	r22, 0x00	; 0
    1538:	70 e0       	ldi	r23, 0x00	; 0
    153a:	40 2b       	or	r20, r16
    153c:	51 2b       	or	r21, r17
    153e:	62 2b       	or	r22, r18
    1540:	73 2b       	or	r23, r19
    1542:	40 93 20 01 	sts	0x0120, r20	; 0x800120 <timestamp>
    1546:	50 93 21 01 	sts	0x0121, r21	; 0x800121 <timestamp+0x1>
    154a:	60 93 22 01 	sts	0x0122, r22	; 0x800122 <timestamp+0x2>
    154e:	70 93 23 01 	sts	0x0123, r23	; 0x800123 <timestamp+0x3>
    1552:	b0 9b       	sbis	0x16, 0	; 22
    1554:	1a c0       	rjmp	.+52     	; 0x158a <__vector_17+0x9a>
    1556:	01 96       	adiw	r24, 0x01	; 1
    1558:	09 2e       	mov	r0, r25
    155a:	00 0c       	add	r0, r0
    155c:	aa 0b       	sbc	r26, r26
    155e:	bb 0b       	sbc	r27, r27
    1560:	bc 01       	movw	r22, r24
    1562:	55 27       	eor	r21, r21
    1564:	44 27       	eor	r20, r20
    1566:	80 91 84 00 	lds	r24, 0x0084	; 0x800084 <__TEXT_REGION_LENGTH__+0x7fc084>
    156a:	90 91 85 00 	lds	r25, 0x0085	; 0x800085 <__TEXT_REGION_LENGTH__+0x7fc085>
    156e:	a0 e0       	ldi	r26, 0x00	; 0
    1570:	b0 e0       	ldi	r27, 0x00	; 0
    1572:	84 2b       	or	r24, r20
    1574:	95 2b       	or	r25, r21
    1576:	a6 2b       	or	r26, r22
    1578:	b7 2b       	or	r27, r23
    157a:	80 93 20 01 	sts	0x0120, r24	; 0x800120 <timestamp>
    157e:	90 93 21 01 	sts	0x0121, r25	; 0x800121 <timestamp+0x1>
    1582:	a0 93 22 01 	sts	0x0122, r26	; 0x800122 <timestamp+0x2>
    1586:	b0 93 23 01 	sts	0x0123, r27	; 0x800123 <timestamp+0x3>
    158a:	e0 91 d8 01 	lds	r30, 0x01D8	; 0x8001d8 <mtable+0x18>
    158e:	f0 91 d9 01 	lds	r31, 0x01D9	; 0x8001d9 <mtable+0x19>
    1592:	30 97       	sbiw	r30, 0x00	; 0
    1594:	39 f0       	breq	.+14     	; 0x15a4 <__vector_17+0xb4>
    1596:	6c e0       	ldi	r22, 0x0C	; 12
    1598:	70 e0       	ldi	r23, 0x00	; 0
    159a:	80 91 40 01 	lds	r24, 0x0140	; 0x800140 <otable+0x18>
    159e:	90 91 41 01 	lds	r25, 0x0141	; 0x800141 <otable+0x19>
    15a2:	09 95       	icall
    15a4:	0e 94 10 05 	call	0xa20	; 0xa20 <schedule>
    15a8:	ff 91       	pop	r31
    15aa:	ef 91       	pop	r30
    15ac:	bf 91       	pop	r27
    15ae:	af 91       	pop	r26
    15b0:	9f 91       	pop	r25
    15b2:	8f 91       	pop	r24
    15b4:	7f 91       	pop	r23
    15b6:	6f 91       	pop	r22
    15b8:	5f 91       	pop	r21
    15ba:	4f 91       	pop	r20
    15bc:	3f 91       	pop	r19
    15be:	2f 91       	pop	r18
    15c0:	1f 91       	pop	r17
    15c2:	0f 91       	pop	r16
    15c4:	0f 90       	pop	r0
    15c6:	0f be       	out	0x3f, r0	; 63
    15c8:	0f 90       	pop	r0
    15ca:	1f 90       	pop	r1
    15cc:	18 95       	reti

000015ce <__vector_18>:
    15ce:	1f 92       	push	r1
    15d0:	0f 92       	push	r0
    15d2:	0f b6       	in	r0, 0x3f	; 63
    15d4:	0f 92       	push	r0
    15d6:	11 24       	eor	r1, r1
    15d8:	0f 93       	push	r16
    15da:	1f 93       	push	r17
    15dc:	2f 93       	push	r18
    15de:	3f 93       	push	r19
    15e0:	4f 93       	push	r20
    15e2:	5f 93       	push	r21
    15e4:	6f 93       	push	r22
    15e6:	7f 93       	push	r23
    15e8:	8f 93       	push	r24
    15ea:	9f 93       	push	r25
    15ec:	af 93       	push	r26
    15ee:	bf 93       	push	r27
    15f0:	ef 93       	push	r30
    15f2:	ff 93       	push	r31
    15f4:	80 91 1e 01 	lds	r24, 0x011E	; 0x80011e <__data_end>
    15f8:	90 91 1f 01 	lds	r25, 0x011F	; 0x80011f <__data_end+0x1>
    15fc:	ac 01       	movw	r20, r24
    15fe:	09 2e       	mov	r0, r25
    1600:	00 0c       	add	r0, r0
    1602:	66 0b       	sbc	r22, r22
    1604:	77 0b       	sbc	r23, r23
    1606:	9a 01       	movw	r18, r20
    1608:	11 27       	eor	r17, r17
    160a:	00 27       	eor	r16, r16
    160c:	40 91 84 00 	lds	r20, 0x0084	; 0x800084 <__TEXT_REGION_LENGTH__+0x7fc084>
    1610:	50 91 85 00 	lds	r21, 0x0085	; 0x800085 <__TEXT_REGION_LENGTH__+0x7fc085>
    1614:	60 e0       	ldi	r22, 0x00	; 0
    1616:	70 e0       	ldi	r23, 0x00	; 0
    1618:	40 2b       	or	r20, r16
    161a:	51 2b       	or	r21, r17
    161c:	62 2b       	or	r22, r18
    161e:	73 2b       	or	r23, r19
    1620:	40 93 20 01 	sts	0x0120, r20	; 0x800120 <timestamp>
    1624:	50 93 21 01 	sts	0x0121, r21	; 0x800121 <timestamp+0x1>
    1628:	60 93 22 01 	sts	0x0122, r22	; 0x800122 <timestamp+0x2>
    162c:	70 93 23 01 	sts	0x0123, r23	; 0x800123 <timestamp+0x3>
    1630:	b0 9b       	sbis	0x16, 0	; 22
    1632:	1a c0       	rjmp	.+52     	; 0x1668 <__vector_18+0x9a>
    1634:	01 96       	adiw	r24, 0x01	; 1
    1636:	09 2e       	mov	r0, r25
    1638:	00 0c       	add	r0, r0
    163a:	aa 0b       	sbc	r26, r26
    163c:	bb 0b       	sbc	r27, r27
    163e:	bc 01       	movw	r22, r24
    1640:	55 27       	eor	r21, r21
    1642:	44 27       	eor	r20, r20
    1644:	80 91 84 00 	lds	r24, 0x0084	; 0x800084 <__TEXT_REGION_LENGTH__+0x7fc084>
    1648:	90 91 85 00 	lds	r25, 0x0085	; 0x800085 <__TEXT_REGION_LENGTH__+0x7fc085>
    164c:	a0 e0       	ldi	r26, 0x00	; 0
    164e:	b0 e0       	ldi	r27, 0x00	; 0
    1650:	84 2b       	or	r24, r20
    1652:	95 2b       	or	r25, r21
    1654:	a6 2b       	or	r26, r22
    1656:	b7 2b       	or	r27, r23
    1658:	80 93 20 01 	sts	0x0120, r24	; 0x800120 <timestamp>
    165c:	90 93 21 01 	sts	0x0121, r25	; 0x800121 <timestamp+0x1>
    1660:	a0 93 22 01 	sts	0x0122, r26	; 0x800122 <timestamp+0x2>
    1664:	b0 93 23 01 	sts	0x0123, r27	; 0x800123 <timestamp+0x3>
    1668:	e0 91 da 01 	lds	r30, 0x01DA	; 0x8001da <mtable+0x1a>
    166c:	f0 91 db 01 	lds	r31, 0x01DB	; 0x8001db <mtable+0x1b>
    1670:	30 97       	sbiw	r30, 0x00	; 0
    1672:	39 f0       	breq	.+14     	; 0x1682 <__vector_18+0xb4>
    1674:	6d e0       	ldi	r22, 0x0D	; 13
    1676:	70 e0       	ldi	r23, 0x00	; 0
    1678:	80 91 42 01 	lds	r24, 0x0142	; 0x800142 <otable+0x1a>
    167c:	90 91 43 01 	lds	r25, 0x0143	; 0x800143 <otable+0x1b>
    1680:	09 95       	icall
    1682:	0e 94 10 05 	call	0xa20	; 0xa20 <schedule>
    1686:	ff 91       	pop	r31
    1688:	ef 91       	pop	r30
    168a:	bf 91       	pop	r27
    168c:	af 91       	pop	r26
    168e:	9f 91       	pop	r25
    1690:	8f 91       	pop	r24
    1692:	7f 91       	pop	r23
    1694:	6f 91       	pop	r22
    1696:	5f 91       	pop	r21
    1698:	4f 91       	pop	r20
    169a:	3f 91       	pop	r19
    169c:	2f 91       	pop	r18
    169e:	1f 91       	pop	r17
    16a0:	0f 91       	pop	r16
    16a2:	0f 90       	pop	r0
    16a4:	0f be       	out	0x3f, r0	; 63
    16a6:	0f 90       	pop	r0
    16a8:	1f 90       	pop	r1
    16aa:	18 95       	reti

000016ac <__vector_19>:
    16ac:	1f 92       	push	r1
    16ae:	0f 92       	push	r0
    16b0:	0f b6       	in	r0, 0x3f	; 63
    16b2:	0f 92       	push	r0
    16b4:	11 24       	eor	r1, r1
    16b6:	0f 93       	push	r16
    16b8:	1f 93       	push	r17
    16ba:	2f 93       	push	r18
    16bc:	3f 93       	push	r19
    16be:	4f 93       	push	r20
    16c0:	5f 93       	push	r21
    16c2:	6f 93       	push	r22
    16c4:	7f 93       	push	r23
    16c6:	8f 93       	push	r24
    16c8:	9f 93       	push	r25
    16ca:	af 93       	push	r26
    16cc:	bf 93       	push	r27
    16ce:	ef 93       	push	r30
    16d0:	ff 93       	push	r31
    16d2:	80 91 1e 01 	lds	r24, 0x011E	; 0x80011e <__data_end>
    16d6:	90 91 1f 01 	lds	r25, 0x011F	; 0x80011f <__data_end+0x1>
    16da:	ac 01       	movw	r20, r24
    16dc:	09 2e       	mov	r0, r25
    16de:	00 0c       	add	r0, r0
    16e0:	66 0b       	sbc	r22, r22
    16e2:	77 0b       	sbc	r23, r23
    16e4:	9a 01       	movw	r18, r20
    16e6:	11 27       	eor	r17, r17
    16e8:	00 27       	eor	r16, r16
    16ea:	40 91 84 00 	lds	r20, 0x0084	; 0x800084 <__TEXT_REGION_LENGTH__+0x7fc084>
    16ee:	50 91 85 00 	lds	r21, 0x0085	; 0x800085 <__TEXT_REGION_LENGTH__+0x7fc085>
    16f2:	60 e0       	ldi	r22, 0x00	; 0
    16f4:	70 e0       	ldi	r23, 0x00	; 0
    16f6:	40 2b       	or	r20, r16
    16f8:	51 2b       	or	r21, r17
    16fa:	62 2b       	or	r22, r18
    16fc:	73 2b       	or	r23, r19
    16fe:	40 93 20 01 	sts	0x0120, r20	; 0x800120 <timestamp>
    1702:	50 93 21 01 	sts	0x0121, r21	; 0x800121 <timestamp+0x1>
    1706:	60 93 22 01 	sts	0x0122, r22	; 0x800122 <timestamp+0x2>
    170a:	70 93 23 01 	sts	0x0123, r23	; 0x800123 <timestamp+0x3>
    170e:	b0 9b       	sbis	0x16, 0	; 22
    1710:	1a c0       	rjmp	.+52     	; 0x1746 <__vector_19+0x9a>
    1712:	01 96       	adiw	r24, 0x01	; 1
    1714:	09 2e       	mov	r0, r25
    1716:	00 0c       	add	r0, r0
    1718:	aa 0b       	sbc	r26, r26
    171a:	bb 0b       	sbc	r27, r27
    171c:	bc 01       	movw	r22, r24
    171e:	55 27       	eor	r21, r21
    1720:	44 27       	eor	r20, r20
    1722:	80 91 84 00 	lds	r24, 0x0084	; 0x800084 <__TEXT_REGION_LENGTH__+0x7fc084>
    1726:	90 91 85 00 	lds	r25, 0x0085	; 0x800085 <__TEXT_REGION_LENGTH__+0x7fc085>
    172a:	a0 e0       	ldi	r26, 0x00	; 0
    172c:	b0 e0       	ldi	r27, 0x00	; 0
    172e:	84 2b       	or	r24, r20
    1730:	95 2b       	or	r25, r21
    1732:	a6 2b       	or	r26, r22
    1734:	b7 2b       	or	r27, r23
    1736:	80 93 20 01 	sts	0x0120, r24	; 0x800120 <timestamp>
    173a:	90 93 21 01 	sts	0x0121, r25	; 0x800121 <timestamp+0x1>
    173e:	a0 93 22 01 	sts	0x0122, r26	; 0x800122 <timestamp+0x2>
    1742:	b0 93 23 01 	sts	0x0123, r27	; 0x800123 <timestamp+0x3>
    1746:	e0 91 dc 01 	lds	r30, 0x01DC	; 0x8001dc <mtable+0x1c>
    174a:	f0 91 dd 01 	lds	r31, 0x01DD	; 0x8001dd <mtable+0x1d>
    174e:	30 97       	sbiw	r30, 0x00	; 0
    1750:	39 f0       	breq	.+14     	; 0x1760 <__vector_19+0xb4>
    1752:	6e e0       	ldi	r22, 0x0E	; 14
    1754:	70 e0       	ldi	r23, 0x00	; 0
    1756:	80 91 44 01 	lds	r24, 0x0144	; 0x800144 <otable+0x1c>
    175a:	90 91 45 01 	lds	r25, 0x0145	; 0x800145 <otable+0x1d>
    175e:	09 95       	icall
    1760:	0e 94 10 05 	call	0xa20	; 0xa20 <schedule>
    1764:	ff 91       	pop	r31
    1766:	ef 91       	pop	r30
    1768:	bf 91       	pop	r27
    176a:	af 91       	pop	r26
    176c:	9f 91       	pop	r25
    176e:	8f 91       	pop	r24
    1770:	7f 91       	pop	r23
    1772:	6f 91       	pop	r22
    1774:	5f 91       	pop	r21
    1776:	4f 91       	pop	r20
    1778:	3f 91       	pop	r19
    177a:	2f 91       	pop	r18
    177c:	1f 91       	pop	r17
    177e:	0f 91       	pop	r16
    1780:	0f 90       	pop	r0
    1782:	0f be       	out	0x3f, r0	; 63
    1784:	0f 90       	pop	r0
    1786:	1f 90       	pop	r1
    1788:	18 95       	reti

0000178a <__vector_20>:
    178a:	1f 92       	push	r1
    178c:	0f 92       	push	r0
    178e:	0f b6       	in	r0, 0x3f	; 63
    1790:	0f 92       	push	r0
    1792:	11 24       	eor	r1, r1
    1794:	0f 93       	push	r16
    1796:	1f 93       	push	r17
    1798:	2f 93       	push	r18
    179a:	3f 93       	push	r19
    179c:	4f 93       	push	r20
    179e:	5f 93       	push	r21
    17a0:	6f 93       	push	r22
    17a2:	7f 93       	push	r23
    17a4:	8f 93       	push	r24
    17a6:	9f 93       	push	r25
    17a8:	af 93       	push	r26
    17aa:	bf 93       	push	r27
    17ac:	ef 93       	push	r30
    17ae:	ff 93       	push	r31
    17b0:	80 91 1e 01 	lds	r24, 0x011E	; 0x80011e <__data_end>
    17b4:	90 91 1f 01 	lds	r25, 0x011F	; 0x80011f <__data_end+0x1>
    17b8:	ac 01       	movw	r20, r24
    17ba:	09 2e       	mov	r0, r25
    17bc:	00 0c       	add	r0, r0
    17be:	66 0b       	sbc	r22, r22
    17c0:	77 0b       	sbc	r23, r23
    17c2:	9a 01       	movw	r18, r20
    17c4:	11 27       	eor	r17, r17
    17c6:	00 27       	eor	r16, r16
    17c8:	40 91 84 00 	lds	r20, 0x0084	; 0x800084 <__TEXT_REGION_LENGTH__+0x7fc084>
    17cc:	50 91 85 00 	lds	r21, 0x0085	; 0x800085 <__TEXT_REGION_LENGTH__+0x7fc085>
    17d0:	60 e0       	ldi	r22, 0x00	; 0
    17d2:	70 e0       	ldi	r23, 0x00	; 0
    17d4:	40 2b       	or	r20, r16
    17d6:	51 2b       	or	r21, r17
    17d8:	62 2b       	or	r22, r18
    17da:	73 2b       	or	r23, r19
    17dc:	40 93 20 01 	sts	0x0120, r20	; 0x800120 <timestamp>
    17e0:	50 93 21 01 	sts	0x0121, r21	; 0x800121 <timestamp+0x1>
    17e4:	60 93 22 01 	sts	0x0122, r22	; 0x800122 <timestamp+0x2>
    17e8:	70 93 23 01 	sts	0x0123, r23	; 0x800123 <timestamp+0x3>
    17ec:	b0 9b       	sbis	0x16, 0	; 22
    17ee:	1a c0       	rjmp	.+52     	; 0x1824 <__vector_20+0x9a>
    17f0:	01 96       	adiw	r24, 0x01	; 1
    17f2:	09 2e       	mov	r0, r25
    17f4:	00 0c       	add	r0, r0
    17f6:	aa 0b       	sbc	r26, r26
    17f8:	bb 0b       	sbc	r27, r27
    17fa:	bc 01       	movw	r22, r24
    17fc:	55 27       	eor	r21, r21
    17fe:	44 27       	eor	r20, r20
    1800:	80 91 84 00 	lds	r24, 0x0084	; 0x800084 <__TEXT_REGION_LENGTH__+0x7fc084>
    1804:	90 91 85 00 	lds	r25, 0x0085	; 0x800085 <__TEXT_REGION_LENGTH__+0x7fc085>
    1808:	a0 e0       	ldi	r26, 0x00	; 0
    180a:	b0 e0       	ldi	r27, 0x00	; 0
    180c:	84 2b       	or	r24, r20
    180e:	95 2b       	or	r25, r21
    1810:	a6 2b       	or	r26, r22
    1812:	b7 2b       	or	r27, r23
    1814:	80 93 20 01 	sts	0x0120, r24	; 0x800120 <timestamp>
    1818:	90 93 21 01 	sts	0x0121, r25	; 0x800121 <timestamp+0x1>
    181c:	a0 93 22 01 	sts	0x0122, r26	; 0x800122 <timestamp+0x2>
    1820:	b0 93 23 01 	sts	0x0123, r27	; 0x800123 <timestamp+0x3>
    1824:	e0 91 de 01 	lds	r30, 0x01DE	; 0x8001de <mtable+0x1e>
    1828:	f0 91 df 01 	lds	r31, 0x01DF	; 0x8001df <mtable+0x1f>
    182c:	30 97       	sbiw	r30, 0x00	; 0
    182e:	39 f0       	breq	.+14     	; 0x183e <__vector_20+0xb4>
    1830:	6f e0       	ldi	r22, 0x0F	; 15
    1832:	70 e0       	ldi	r23, 0x00	; 0
    1834:	80 91 46 01 	lds	r24, 0x0146	; 0x800146 <otable+0x1e>
    1838:	90 91 47 01 	lds	r25, 0x0147	; 0x800147 <otable+0x1f>
    183c:	09 95       	icall
    183e:	0e 94 10 05 	call	0xa20	; 0xa20 <schedule>
    1842:	ff 91       	pop	r31
    1844:	ef 91       	pop	r30
    1846:	bf 91       	pop	r27
    1848:	af 91       	pop	r26
    184a:	9f 91       	pop	r25
    184c:	8f 91       	pop	r24
    184e:	7f 91       	pop	r23
    1850:	6f 91       	pop	r22
    1852:	5f 91       	pop	r21
    1854:	4f 91       	pop	r20
    1856:	3f 91       	pop	r19
    1858:	2f 91       	pop	r18
    185a:	1f 91       	pop	r17
    185c:	0f 91       	pop	r16
    185e:	0f 90       	pop	r0
    1860:	0f be       	out	0x3f, r0	; 63
    1862:	0f 90       	pop	r0
    1864:	1f 90       	pop	r1
    1866:	18 95       	reti

00001868 <__vector_21>:
    1868:	1f 92       	push	r1
    186a:	0f 92       	push	r0
    186c:	0f b6       	in	r0, 0x3f	; 63
    186e:	0f 92       	push	r0
    1870:	11 24       	eor	r1, r1
    1872:	0f 93       	push	r16
    1874:	1f 93       	push	r17
    1876:	2f 93       	push	r18
    1878:	3f 93       	push	r19
    187a:	4f 93       	push	r20
    187c:	5f 93       	push	r21
    187e:	6f 93       	push	r22
    1880:	7f 93       	push	r23
    1882:	8f 93       	push	r24
    1884:	9f 93       	push	r25
    1886:	af 93       	push	r26
    1888:	bf 93       	push	r27
    188a:	ef 93       	push	r30
    188c:	ff 93       	push	r31
    188e:	80 91 1e 01 	lds	r24, 0x011E	; 0x80011e <__data_end>
    1892:	90 91 1f 01 	lds	r25, 0x011F	; 0x80011f <__data_end+0x1>
    1896:	ac 01       	movw	r20, r24
    1898:	09 2e       	mov	r0, r25
    189a:	00 0c       	add	r0, r0
    189c:	66 0b       	sbc	r22, r22
    189e:	77 0b       	sbc	r23, r23
    18a0:	9a 01       	movw	r18, r20
    18a2:	11 27       	eor	r17, r17
    18a4:	00 27       	eor	r16, r16
    18a6:	40 91 84 00 	lds	r20, 0x0084	; 0x800084 <__TEXT_REGION_LENGTH__+0x7fc084>
    18aa:	50 91 85 00 	lds	r21, 0x0085	; 0x800085 <__TEXT_REGION_LENGTH__+0x7fc085>
    18ae:	60 e0       	ldi	r22, 0x00	; 0
    18b0:	70 e0       	ldi	r23, 0x00	; 0
    18b2:	40 2b       	or	r20, r16
    18b4:	51 2b       	or	r21, r17
    18b6:	62 2b       	or	r22, r18
    18b8:	73 2b       	or	r23, r19
    18ba:	40 93 20 01 	sts	0x0120, r20	; 0x800120 <timestamp>
    18be:	50 93 21 01 	sts	0x0121, r21	; 0x800121 <timestamp+0x1>
    18c2:	60 93 22 01 	sts	0x0122, r22	; 0x800122 <timestamp+0x2>
    18c6:	70 93 23 01 	sts	0x0123, r23	; 0x800123 <timestamp+0x3>
    18ca:	b0 9b       	sbis	0x16, 0	; 22
    18cc:	1a c0       	rjmp	.+52     	; 0x1902 <__vector_21+0x9a>
    18ce:	01 96       	adiw	r24, 0x01	; 1
    18d0:	09 2e       	mov	r0, r25
    18d2:	00 0c       	add	r0, r0
    18d4:	aa 0b       	sbc	r26, r26
    18d6:	bb 0b       	sbc	r27, r27
    18d8:	bc 01       	movw	r22, r24
    18da:	55 27       	eor	r21, r21
    18dc:	44 27       	eor	r20, r20
    18de:	80 91 84 00 	lds	r24, 0x0084	; 0x800084 <__TEXT_REGION_LENGTH__+0x7fc084>
    18e2:	90 91 85 00 	lds	r25, 0x0085	; 0x800085 <__TEXT_REGION_LENGTH__+0x7fc085>
    18e6:	a0 e0       	ldi	r26, 0x00	; 0
    18e8:	b0 e0       	ldi	r27, 0x00	; 0
    18ea:	84 2b       	or	r24, r20
    18ec:	95 2b       	or	r25, r21
    18ee:	a6 2b       	or	r26, r22
    18f0:	b7 2b       	or	r27, r23
    18f2:	80 93 20 01 	sts	0x0120, r24	; 0x800120 <timestamp>
    18f6:	90 93 21 01 	sts	0x0121, r25	; 0x800121 <timestamp+0x1>
    18fa:	a0 93 22 01 	sts	0x0122, r26	; 0x800122 <timestamp+0x2>
    18fe:	b0 93 23 01 	sts	0x0123, r27	; 0x800123 <timestamp+0x3>
    1902:	e0 91 e0 01 	lds	r30, 0x01E0	; 0x8001e0 <mtable+0x20>
    1906:	f0 91 e1 01 	lds	r31, 0x01E1	; 0x8001e1 <mtable+0x21>
    190a:	30 97       	sbiw	r30, 0x00	; 0
    190c:	39 f0       	breq	.+14     	; 0x191c <__vector_21+0xb4>
    190e:	60 e1       	ldi	r22, 0x10	; 16
    1910:	70 e0       	ldi	r23, 0x00	; 0
    1912:	80 91 48 01 	lds	r24, 0x0148	; 0x800148 <otable+0x20>
    1916:	90 91 49 01 	lds	r25, 0x0149	; 0x800149 <otable+0x21>
    191a:	09 95       	icall
    191c:	0e 94 10 05 	call	0xa20	; 0xa20 <schedule>
    1920:	ff 91       	pop	r31
    1922:	ef 91       	pop	r30
    1924:	bf 91       	pop	r27
    1926:	af 91       	pop	r26
    1928:	9f 91       	pop	r25
    192a:	8f 91       	pop	r24
    192c:	7f 91       	pop	r23
    192e:	6f 91       	pop	r22
    1930:	5f 91       	pop	r21
    1932:	4f 91       	pop	r20
    1934:	3f 91       	pop	r19
    1936:	2f 91       	pop	r18
    1938:	1f 91       	pop	r17
    193a:	0f 91       	pop	r16
    193c:	0f 90       	pop	r0
    193e:	0f be       	out	0x3f, r0	; 63
    1940:	0f 90       	pop	r0
    1942:	1f 90       	pop	r1
    1944:	18 95       	reti

00001946 <__vector_22>:
    1946:	1f 92       	push	r1
    1948:	0f 92       	push	r0
    194a:	0f b6       	in	r0, 0x3f	; 63
    194c:	0f 92       	push	r0
    194e:	11 24       	eor	r1, r1
    1950:	0f 93       	push	r16
    1952:	1f 93       	push	r17
    1954:	2f 93       	push	r18
    1956:	3f 93       	push	r19
    1958:	4f 93       	push	r20
    195a:	5f 93       	push	r21
    195c:	6f 93       	push	r22
    195e:	7f 93       	push	r23
    1960:	8f 93       	push	r24
    1962:	9f 93       	push	r25
    1964:	af 93       	push	r26
    1966:	bf 93       	push	r27
    1968:	ef 93       	push	r30
    196a:	ff 93       	push	r31
    196c:	80 91 1e 01 	lds	r24, 0x011E	; 0x80011e <__data_end>
    1970:	90 91 1f 01 	lds	r25, 0x011F	; 0x80011f <__data_end+0x1>
    1974:	ac 01       	movw	r20, r24
    1976:	09 2e       	mov	r0, r25
    1978:	00 0c       	add	r0, r0
    197a:	66 0b       	sbc	r22, r22
    197c:	77 0b       	sbc	r23, r23
    197e:	9a 01       	movw	r18, r20
    1980:	11 27       	eor	r17, r17
    1982:	00 27       	eor	r16, r16
    1984:	40 91 84 00 	lds	r20, 0x0084	; 0x800084 <__TEXT_REGION_LENGTH__+0x7fc084>
    1988:	50 91 85 00 	lds	r21, 0x0085	; 0x800085 <__TEXT_REGION_LENGTH__+0x7fc085>
    198c:	60 e0       	ldi	r22, 0x00	; 0
    198e:	70 e0       	ldi	r23, 0x00	; 0
    1990:	40 2b       	or	r20, r16
    1992:	51 2b       	or	r21, r17
    1994:	62 2b       	or	r22, r18
    1996:	73 2b       	or	r23, r19
    1998:	40 93 20 01 	sts	0x0120, r20	; 0x800120 <timestamp>
    199c:	50 93 21 01 	sts	0x0121, r21	; 0x800121 <timestamp+0x1>
    19a0:	60 93 22 01 	sts	0x0122, r22	; 0x800122 <timestamp+0x2>
    19a4:	70 93 23 01 	sts	0x0123, r23	; 0x800123 <timestamp+0x3>
    19a8:	b0 9b       	sbis	0x16, 0	; 22
    19aa:	1a c0       	rjmp	.+52     	; 0x19e0 <__vector_22+0x9a>
    19ac:	01 96       	adiw	r24, 0x01	; 1
    19ae:	09 2e       	mov	r0, r25
    19b0:	00 0c       	add	r0, r0
    19b2:	aa 0b       	sbc	r26, r26
    19b4:	bb 0b       	sbc	r27, r27
    19b6:	bc 01       	movw	r22, r24
    19b8:	55 27       	eor	r21, r21
    19ba:	44 27       	eor	r20, r20
    19bc:	80 91 84 00 	lds	r24, 0x0084	; 0x800084 <__TEXT_REGION_LENGTH__+0x7fc084>
    19c0:	90 91 85 00 	lds	r25, 0x0085	; 0x800085 <__TEXT_REGION_LENGTH__+0x7fc085>
    19c4:	a0 e0       	ldi	r26, 0x00	; 0
    19c6:	b0 e0       	ldi	r27, 0x00	; 0
    19c8:	84 2b       	or	r24, r20
    19ca:	95 2b       	or	r25, r21
    19cc:	a6 2b       	or	r26, r22
    19ce:	b7 2b       	or	r27, r23
    19d0:	80 93 20 01 	sts	0x0120, r24	; 0x800120 <timestamp>
    19d4:	90 93 21 01 	sts	0x0121, r25	; 0x800121 <timestamp+0x1>
    19d8:	a0 93 22 01 	sts	0x0122, r26	; 0x800122 <timestamp+0x2>
    19dc:	b0 93 23 01 	sts	0x0123, r27	; 0x800123 <timestamp+0x3>
    19e0:	e0 91 e2 01 	lds	r30, 0x01E2	; 0x8001e2 <mtable+0x22>
    19e4:	f0 91 e3 01 	lds	r31, 0x01E3	; 0x8001e3 <mtable+0x23>
    19e8:	30 97       	sbiw	r30, 0x00	; 0
    19ea:	39 f0       	breq	.+14     	; 0x19fa <__vector_22+0xb4>
    19ec:	61 e1       	ldi	r22, 0x11	; 17
    19ee:	70 e0       	ldi	r23, 0x00	; 0
    19f0:	80 91 4a 01 	lds	r24, 0x014A	; 0x80014a <otable+0x22>
    19f4:	90 91 4b 01 	lds	r25, 0x014B	; 0x80014b <otable+0x23>
    19f8:	09 95       	icall
    19fa:	0e 94 10 05 	call	0xa20	; 0xa20 <schedule>
    19fe:	ff 91       	pop	r31
    1a00:	ef 91       	pop	r30
    1a02:	bf 91       	pop	r27
    1a04:	af 91       	pop	r26
    1a06:	9f 91       	pop	r25
    1a08:	8f 91       	pop	r24
    1a0a:	7f 91       	pop	r23
    1a0c:	6f 91       	pop	r22
    1a0e:	5f 91       	pop	r21
    1a10:	4f 91       	pop	r20
    1a12:	3f 91       	pop	r19
    1a14:	2f 91       	pop	r18
    1a16:	1f 91       	pop	r17
    1a18:	0f 91       	pop	r16
    1a1a:	0f 90       	pop	r0
    1a1c:	0f be       	out	0x3f, r0	; 63
    1a1e:	0f 90       	pop	r0
    1a20:	1f 90       	pop	r1
    1a22:	18 95       	reti

00001a24 <idle>:
    1a24:	0e 94 10 05 	call	0xa20	; 0xa20 <schedule>
    1a28:	78 94       	sei
    1a2a:	81 e0       	ldi	r24, 0x01	; 1
    1a2c:	83 bf       	out	0x33, r24	; 51
    1a2e:	88 95       	sleep
    1a30:	fc cf       	rjmp	.-8      	; 0x1a2a <idle+0x6>

00001a32 <__vector_9>:
    1a32:	1f 92       	push	r1
    1a34:	0f 92       	push	r0
    1a36:	0f b6       	in	r0, 0x3f	; 63
    1a38:	0f 92       	push	r0
    1a3a:	11 24       	eor	r1, r1
    1a3c:	2f 93       	push	r18
    1a3e:	3f 93       	push	r19
    1a40:	4f 93       	push	r20
    1a42:	5f 93       	push	r21
    1a44:	6f 93       	push	r22
    1a46:	7f 93       	push	r23
    1a48:	8f 93       	push	r24
    1a4a:	9f 93       	push	r25
    1a4c:	ef 93       	push	r30
    1a4e:	ff 93       	push	r31
    1a50:	80 91 1e 01 	lds	r24, 0x011E	; 0x80011e <__data_end>
    1a54:	90 91 1f 01 	lds	r25, 0x011F	; 0x80011f <__data_end+0x1>
    1a58:	01 96       	adiw	r24, 0x01	; 1
    1a5a:	90 93 1f 01 	sts	0x011F, r25	; 0x80011f <__data_end+0x1>
    1a5e:	80 93 1e 01 	sts	0x011E, r24	; 0x80011e <__data_end>
    1a62:	e0 91 24 01 	lds	r30, 0x0124	; 0x800124 <timerQ>
    1a66:	f0 91 25 01 	lds	r31, 0x0125	; 0x800125 <timerQ+0x1>
    1a6a:	30 97       	sbiw	r30, 0x00	; 0
    1a6c:	01 f1       	breq	.+64     	; 0x1aae <__vector_9+0x7c>
    1a6e:	42 81       	ldd	r20, Z+2	; 0x02
    1a70:	53 81       	ldd	r21, Z+3	; 0x03
    1a72:	64 81       	ldd	r22, Z+4	; 0x04
    1a74:	75 81       	ldd	r23, Z+5	; 0x05
    1a76:	86 17       	cp	r24, r22
    1a78:	97 07       	cpc	r25, r23
    1a7a:	c9 f4       	brne	.+50     	; 0x1aae <__vector_9+0x7c>
    1a7c:	ca 01       	movw	r24, r20
    1a7e:	20 91 84 00 	lds	r18, 0x0084	; 0x800084 <__TEXT_REGION_LENGTH__+0x7fc084>
    1a82:	30 91 85 00 	lds	r19, 0x0085	; 0x800085 <__TEXT_REGION_LENGTH__+0x7fc085>
    1a86:	42 1b       	sub	r20, r18
    1a88:	53 0b       	sbc	r21, r19
    1a8a:	41 30       	cpi	r20, 0x01	; 1
    1a8c:	51 05       	cpc	r21, r1
    1a8e:	29 f4       	brne	.+10     	; 0x1a9a <__vector_9+0x68>
    1a90:	80 91 84 00 	lds	r24, 0x0084	; 0x800084 <__TEXT_REGION_LENGTH__+0x7fc084>
    1a94:	90 91 85 00 	lds	r25, 0x0085	; 0x800085 <__TEXT_REGION_LENGTH__+0x7fc085>
    1a98:	01 96       	adiw	r24, 0x01	; 1
    1a9a:	90 93 89 00 	sts	0x0089, r25	; 0x800089 <__TEXT_REGION_LENGTH__+0x7fc089>
    1a9e:	80 93 88 00 	sts	0x0088, r24	; 0x800088 <__TEXT_REGION_LENGTH__+0x7fc088>
    1aa2:	ef e6       	ldi	r30, 0x6F	; 111
    1aa4:	f0 e0       	ldi	r31, 0x00	; 0
    1aa6:	80 81       	ld	r24, Z
    1aa8:	82 60       	ori	r24, 0x02	; 2
    1aaa:	80 83       	st	Z, r24
    1aac:	05 c0       	rjmp	.+10     	; 0x1ab8 <__vector_9+0x86>
    1aae:	ef e6       	ldi	r30, 0x6F	; 111
    1ab0:	f0 e0       	ldi	r31, 0x00	; 0
    1ab2:	80 81       	ld	r24, Z
    1ab4:	8d 7f       	andi	r24, 0xFD	; 253
    1ab6:	80 83       	st	Z, r24
    1ab8:	ff 91       	pop	r31
    1aba:	ef 91       	pop	r30
    1abc:	9f 91       	pop	r25
    1abe:	8f 91       	pop	r24
    1ac0:	7f 91       	pop	r23
    1ac2:	6f 91       	pop	r22
    1ac4:	5f 91       	pop	r21
    1ac6:	4f 91       	pop	r20
    1ac8:	3f 91       	pop	r19
    1aca:	2f 91       	pop	r18
    1acc:	0f 90       	pop	r0
    1ace:	0f be       	out	0x3f, r0	; 63
    1ad0:	0f 90       	pop	r0
    1ad2:	1f 90       	pop	r1
    1ad4:	18 95       	reti

00001ad6 <__vector_7>:
    1ad6:	1f 92       	push	r1
    1ad8:	0f 92       	push	r0
    1ada:	0f b6       	in	r0, 0x3f	; 63
    1adc:	0f 92       	push	r0
    1ade:	11 24       	eor	r1, r1
    1ae0:	cf 92       	push	r12
    1ae2:	df 92       	push	r13
    1ae4:	ef 92       	push	r14
    1ae6:	ff 92       	push	r15
    1ae8:	2f 93       	push	r18
    1aea:	3f 93       	push	r19
    1aec:	4f 93       	push	r20
    1aee:	5f 93       	push	r21
    1af0:	6f 93       	push	r22
    1af2:	7f 93       	push	r23
    1af4:	8f 93       	push	r24
    1af6:	9f 93       	push	r25
    1af8:	af 93       	push	r26
    1afa:	bf 93       	push	r27
    1afc:	ef 93       	push	r30
    1afe:	ff 93       	push	r31
    1b00:	80 91 1e 01 	lds	r24, 0x011E	; 0x80011e <__data_end>
    1b04:	90 91 1f 01 	lds	r25, 0x011F	; 0x80011f <__data_end+0x1>
    1b08:	6c 01       	movw	r12, r24
    1b0a:	09 2e       	mov	r0, r25
    1b0c:	00 0c       	add	r0, r0
    1b0e:	ee 08       	sbc	r14, r14
    1b10:	ff 08       	sbc	r15, r15
    1b12:	76 01       	movw	r14, r12
    1b14:	dd 24       	eor	r13, r13
    1b16:	cc 24       	eor	r12, r12
    1b18:	40 91 84 00 	lds	r20, 0x0084	; 0x800084 <__TEXT_REGION_LENGTH__+0x7fc084>
    1b1c:	50 91 85 00 	lds	r21, 0x0085	; 0x800085 <__TEXT_REGION_LENGTH__+0x7fc085>
    1b20:	60 e0       	ldi	r22, 0x00	; 0
    1b22:	70 e0       	ldi	r23, 0x00	; 0
    1b24:	c4 2a       	or	r12, r20
    1b26:	d5 2a       	or	r13, r21
    1b28:	e6 2a       	or	r14, r22
    1b2a:	f7 2a       	or	r15, r23
    1b2c:	b0 9b       	sbis	0x16, 0	; 22
    1b2e:	1e c0       	rjmp	.+60     	; 0x1b6c <__vector_7+0x96>
    1b30:	6c 01       	movw	r12, r24
    1b32:	2f ef       	ldi	r18, 0xFF	; 255
    1b34:	c2 1a       	sub	r12, r18
    1b36:	d2 0a       	sbc	r13, r18
    1b38:	0d 2c       	mov	r0, r13
    1b3a:	00 0c       	add	r0, r0
    1b3c:	ee 08       	sbc	r14, r14
    1b3e:	ff 08       	sbc	r15, r15
    1b40:	d6 01       	movw	r26, r12
    1b42:	99 27       	eor	r25, r25
    1b44:	88 27       	eor	r24, r24
    1b46:	c0 90 84 00 	lds	r12, 0x0084	; 0x800084 <__TEXT_REGION_LENGTH__+0x7fc084>
    1b4a:	d0 90 85 00 	lds	r13, 0x0085	; 0x800085 <__TEXT_REGION_LENGTH__+0x7fc085>
    1b4e:	e1 2c       	mov	r14, r1
    1b50:	f1 2c       	mov	r15, r1
    1b52:	c8 2a       	or	r12, r24
    1b54:	d9 2a       	or	r13, r25
    1b56:	ea 2a       	or	r14, r26
    1b58:	fb 2a       	or	r15, r27
    1b5a:	08 c0       	rjmp	.+16     	; 0x1b6c <__vector_7+0x96>
    1b5c:	84 e2       	ldi	r24, 0x24	; 36
    1b5e:	91 e0       	ldi	r25, 0x01	; 1
    1b60:	0e 94 db 04 	call	0x9b6	; 0x9b6 <dequeue>
    1b64:	66 e2       	ldi	r22, 0x26	; 38
    1b66:	71 e0       	ldi	r23, 0x01	; 1
    1b68:	0e 94 79 04 	call	0x8f2	; 0x8f2 <enqueueByDeadline>
    1b6c:	e0 91 24 01 	lds	r30, 0x0124	; 0x800124 <timerQ>
    1b70:	f0 91 25 01 	lds	r31, 0x0125	; 0x800125 <timerQ+0x1>
    1b74:	30 97       	sbiw	r30, 0x00	; 0
    1b76:	69 f0       	breq	.+26     	; 0x1b92 <__vector_7+0xbc>
    1b78:	82 81       	ldd	r24, Z+2	; 0x02
    1b7a:	93 81       	ldd	r25, Z+3	; 0x03
    1b7c:	a4 81       	ldd	r26, Z+4	; 0x04
    1b7e:	b5 81       	ldd	r27, Z+5	; 0x05
    1b80:	8c 19       	sub	r24, r12
    1b82:	9d 09       	sbc	r25, r13
    1b84:	ae 09       	sbc	r26, r14
    1b86:	bf 09       	sbc	r27, r15
    1b88:	18 16       	cp	r1, r24
    1b8a:	19 06       	cpc	r1, r25
    1b8c:	1a 06       	cpc	r1, r26
    1b8e:	1b 06       	cpc	r1, r27
    1b90:	2c f7       	brge	.-54     	; 0x1b5c <__vector_7+0x86>
    1b92:	30 97       	sbiw	r30, 0x00	; 0
    1b94:	21 f1       	breq	.+72     	; 0x1bde <__vector_7+0x108>
    1b96:	82 81       	ldd	r24, Z+2	; 0x02
    1b98:	93 81       	ldd	r25, Z+3	; 0x03
    1b9a:	a4 81       	ldd	r26, Z+4	; 0x04
    1b9c:	b5 81       	ldd	r27, Z+5	; 0x05
    1b9e:	20 91 1e 01 	lds	r18, 0x011E	; 0x80011e <__data_end>
    1ba2:	30 91 1f 01 	lds	r19, 0x011F	; 0x80011f <__data_end+0x1>
    1ba6:	2a 17       	cp	r18, r26
    1ba8:	3b 07       	cpc	r19, r27
    1baa:	c9 f4       	brne	.+50     	; 0x1bde <__vector_7+0x108>
    1bac:	9c 01       	movw	r18, r24
    1bae:	40 91 84 00 	lds	r20, 0x0084	; 0x800084 <__TEXT_REGION_LENGTH__+0x7fc084>
    1bb2:	50 91 85 00 	lds	r21, 0x0085	; 0x800085 <__TEXT_REGION_LENGTH__+0x7fc085>
    1bb6:	84 1b       	sub	r24, r20
    1bb8:	95 0b       	sbc	r25, r21
    1bba:	01 97       	sbiw	r24, 0x01	; 1
    1bbc:	31 f4       	brne	.+12     	; 0x1bca <__vector_7+0xf4>
    1bbe:	20 91 84 00 	lds	r18, 0x0084	; 0x800084 <__TEXT_REGION_LENGTH__+0x7fc084>
    1bc2:	30 91 85 00 	lds	r19, 0x0085	; 0x800085 <__TEXT_REGION_LENGTH__+0x7fc085>
    1bc6:	2f 5f       	subi	r18, 0xFF	; 255
    1bc8:	3f 4f       	sbci	r19, 0xFF	; 255
    1bca:	30 93 89 00 	sts	0x0089, r19	; 0x800089 <__TEXT_REGION_LENGTH__+0x7fc089>
    1bce:	20 93 88 00 	sts	0x0088, r18	; 0x800088 <__TEXT_REGION_LENGTH__+0x7fc088>
    1bd2:	ef e6       	ldi	r30, 0x6F	; 111
    1bd4:	f0 e0       	ldi	r31, 0x00	; 0
    1bd6:	80 81       	ld	r24, Z
    1bd8:	82 60       	ori	r24, 0x02	; 2
    1bda:	80 83       	st	Z, r24
    1bdc:	05 c0       	rjmp	.+10     	; 0x1be8 <__vector_7+0x112>
    1bde:	ef e6       	ldi	r30, 0x6F	; 111
    1be0:	f0 e0       	ldi	r31, 0x00	; 0
    1be2:	80 81       	ld	r24, Z
    1be4:	8d 7f       	andi	r24, 0xFD	; 253
    1be6:	80 83       	st	Z, r24
    1be8:	0e 94 10 05 	call	0xa20	; 0xa20 <schedule>
    1bec:	ff 91       	pop	r31
    1bee:	ef 91       	pop	r30
    1bf0:	bf 91       	pop	r27
    1bf2:	af 91       	pop	r26
    1bf4:	9f 91       	pop	r25
    1bf6:	8f 91       	pop	r24
    1bf8:	7f 91       	pop	r23
    1bfa:	6f 91       	pop	r22
    1bfc:	5f 91       	pop	r21
    1bfe:	4f 91       	pop	r20
    1c00:	3f 91       	pop	r19
    1c02:	2f 91       	pop	r18
    1c04:	ff 90       	pop	r15
    1c06:	ef 90       	pop	r14
    1c08:	df 90       	pop	r13
    1c0a:	cf 90       	pop	r12
    1c0c:	0f 90       	pop	r0
    1c0e:	0f be       	out	0x3f, r0	; 63
    1c10:	0f 90       	pop	r0
    1c12:	1f 90       	pop	r1
    1c14:	18 95       	reti

00001c16 <async>:
    1c16:	3f 92       	push	r3
    1c18:	4f 92       	push	r4
    1c1a:	5f 92       	push	r5
    1c1c:	6f 92       	push	r6
    1c1e:	7f 92       	push	r7
    1c20:	8f 92       	push	r8
    1c22:	9f 92       	push	r9
    1c24:	af 92       	push	r10
    1c26:	bf 92       	push	r11
    1c28:	cf 92       	push	r12
    1c2a:	df 92       	push	r13
    1c2c:	ef 92       	push	r14
    1c2e:	ff 92       	push	r15
    1c30:	0f 93       	push	r16
    1c32:	1f 93       	push	r17
    1c34:	cf 93       	push	r28
    1c36:	df 93       	push	r29
    1c38:	2b 01       	movw	r4, r22
    1c3a:	3c 01       	movw	r6, r24
    1c3c:	49 01       	movw	r8, r18
    1c3e:	5a 01       	movw	r10, r20
    1c40:	8f b7       	in	r24, 0x3f	; 63
    1c42:	80 78       	andi	r24, 0x80	; 128
    1c44:	38 2e       	mov	r3, r24
    1c46:	f8 94       	cli
    1c48:	86 e0       	ldi	r24, 0x06	; 6
    1c4a:	91 e0       	ldi	r25, 0x01	; 1
    1c4c:	0e 94 db 04 	call	0x9b6	; 0x9b6 <dequeue>
    1c50:	ec 01       	movw	r28, r24
    1c52:	1b 87       	std	Y+11, r17	; 0x0b
    1c54:	0a 87       	std	Y+10, r16	; 0x0a
    1c56:	fd 86       	std	Y+13, r15	; 0x0d
    1c58:	ec 86       	std	Y+12, r14	; 0x0c
    1c5a:	df 86       	std	Y+15, r13	; 0x0f
    1c5c:	ce 86       	std	Y+14, r12	; 0x0e
    1c5e:	33 20       	and	r3, r3
    1c60:	61 f0       	breq	.+24     	; 0x1c7a <async+0x64>
    1c62:	e0 91 00 01 	lds	r30, 0x0100	; 0x800100 <__DATA_REGION_ORIGIN__>
    1c66:	f0 91 01 01 	lds	r31, 0x0101	; 0x800101 <__DATA_REGION_ORIGIN__+0x1>
    1c6a:	02 80       	ldd	r0, Z+2	; 0x02
    1c6c:	f3 81       	ldd	r31, Z+3	; 0x03
    1c6e:	e0 2d       	mov	r30, r0
    1c70:	82 81       	ldd	r24, Z+2	; 0x02
    1c72:	93 81       	ldd	r25, Z+3	; 0x03
    1c74:	a4 81       	ldd	r26, Z+4	; 0x04
    1c76:	b5 81       	ldd	r27, Z+5	; 0x05
    1c78:	08 c0       	rjmp	.+16     	; 0x1c8a <async+0x74>
    1c7a:	80 91 20 01 	lds	r24, 0x0120	; 0x800120 <timestamp>
    1c7e:	90 91 21 01 	lds	r25, 0x0121	; 0x800121 <timestamp+0x1>
    1c82:	a0 91 22 01 	lds	r26, 0x0122	; 0x800122 <timestamp+0x2>
    1c86:	b0 91 23 01 	lds	r27, 0x0123	; 0x800123 <timestamp+0x3>
    1c8a:	48 0e       	add	r4, r24
    1c8c:	59 1e       	adc	r5, r25
    1c8e:	6a 1e       	adc	r6, r26
    1c90:	7b 1e       	adc	r7, r27
    1c92:	4a 82       	std	Y+2, r4	; 0x02
    1c94:	5b 82       	std	Y+3, r5	; 0x03
    1c96:	6c 82       	std	Y+4, r6	; 0x04
    1c98:	7d 82       	std	Y+5, r7	; 0x05
    1c9a:	18 14       	cp	r1, r8
    1c9c:	19 04       	cpc	r1, r9
    1c9e:	1a 04       	cpc	r1, r10
    1ca0:	1b 04       	cpc	r1, r11
    1ca2:	44 f0       	brlt	.+16     	; 0x1cb4 <async+0x9e>
    1ca4:	0f 2e       	mov	r0, r31
    1ca6:	88 24       	eor	r8, r8
    1ca8:	8a 94       	dec	r8
    1caa:	98 2c       	mov	r9, r8
    1cac:	a8 2c       	mov	r10, r8
    1cae:	ff e7       	ldi	r31, 0x7F	; 127
    1cb0:	bf 2e       	mov	r11, r31
    1cb2:	f0 2d       	mov	r31, r0
    1cb4:	84 0c       	add	r8, r4
    1cb6:	95 1c       	adc	r9, r5
    1cb8:	a6 1c       	adc	r10, r6
    1cba:	b7 1c       	adc	r11, r7
    1cbc:	8e 82       	std	Y+6, r8	; 0x06
    1cbe:	9f 82       	std	Y+7, r9	; 0x07
    1cc0:	a8 86       	std	Y+8, r10	; 0x08
    1cc2:	b9 86       	std	Y+9, r11	; 0x09
    1cc4:	20 91 1e 01 	lds	r18, 0x011E	; 0x80011e <__data_end>
    1cc8:	30 91 1f 01 	lds	r19, 0x011F	; 0x80011f <__data_end+0x1>
    1ccc:	c9 01       	movw	r24, r18
    1cce:	03 2e       	mov	r0, r19
    1cd0:	00 0c       	add	r0, r0
    1cd2:	aa 0b       	sbc	r26, r26
    1cd4:	bb 0b       	sbc	r27, r27
    1cd6:	dc 01       	movw	r26, r24
    1cd8:	99 27       	eor	r25, r25
    1cda:	88 27       	eor	r24, r24
    1cdc:	40 91 84 00 	lds	r20, 0x0084	; 0x800084 <__TEXT_REGION_LENGTH__+0x7fc084>
    1ce0:	50 91 85 00 	lds	r21, 0x0085	; 0x800085 <__TEXT_REGION_LENGTH__+0x7fc085>
    1ce4:	60 e0       	ldi	r22, 0x00	; 0
    1ce6:	70 e0       	ldi	r23, 0x00	; 0
    1ce8:	84 2b       	or	r24, r20
    1cea:	95 2b       	or	r25, r21
    1cec:	a6 2b       	or	r26, r22
    1cee:	b7 2b       	or	r27, r23
    1cf0:	b0 9b       	sbis	0x16, 0	; 22
    1cf2:	13 c0       	rjmp	.+38     	; 0x1d1a <async+0x104>
    1cf4:	c9 01       	movw	r24, r18
    1cf6:	01 96       	adiw	r24, 0x01	; 1
    1cf8:	09 2e       	mov	r0, r25
    1cfa:	00 0c       	add	r0, r0
    1cfc:	aa 0b       	sbc	r26, r26
    1cfe:	bb 0b       	sbc	r27, r27
    1d00:	dc 01       	movw	r26, r24
    1d02:	99 27       	eor	r25, r25
    1d04:	88 27       	eor	r24, r24
    1d06:	40 91 84 00 	lds	r20, 0x0084	; 0x800084 <__TEXT_REGION_LENGTH__+0x7fc084>
    1d0a:	50 91 85 00 	lds	r21, 0x0085	; 0x800085 <__TEXT_REGION_LENGTH__+0x7fc085>
    1d0e:	60 e0       	ldi	r22, 0x00	; 0
    1d10:	70 e0       	ldi	r23, 0x00	; 0
    1d12:	84 2b       	or	r24, r20
    1d14:	95 2b       	or	r25, r21
    1d16:	a6 2b       	or	r26, r22
    1d18:	b7 2b       	or	r27, r23
    1d1a:	48 1a       	sub	r4, r24
    1d1c:	59 0a       	sbc	r5, r25
    1d1e:	6a 0a       	sbc	r6, r26
    1d20:	7b 0a       	sbc	r7, r27
    1d22:	14 14       	cp	r1, r4
    1d24:	15 04       	cpc	r1, r5
    1d26:	16 04       	cpc	r1, r6
    1d28:	17 04       	cpc	r1, r7
    1d2a:	ac f5       	brge	.+106    	; 0x1d96 <async+0x180>
    1d2c:	64 e2       	ldi	r22, 0x24	; 36
    1d2e:	71 e0       	ldi	r23, 0x01	; 1
    1d30:	ce 01       	movw	r24, r28
    1d32:	0e 94 aa 04 	call	0x954	; 0x954 <enqueueByBaseline>
    1d36:	e0 91 24 01 	lds	r30, 0x0124	; 0x800124 <timerQ>
    1d3a:	f0 91 25 01 	lds	r31, 0x0125	; 0x800125 <timerQ+0x1>
    1d3e:	30 97       	sbiw	r30, 0x00	; 0
    1d40:	21 f1       	breq	.+72     	; 0x1d8a <async+0x174>
    1d42:	82 81       	ldd	r24, Z+2	; 0x02
    1d44:	93 81       	ldd	r25, Z+3	; 0x03
    1d46:	a4 81       	ldd	r26, Z+4	; 0x04
    1d48:	b5 81       	ldd	r27, Z+5	; 0x05
    1d4a:	20 91 1e 01 	lds	r18, 0x011E	; 0x80011e <__data_end>
    1d4e:	30 91 1f 01 	lds	r19, 0x011F	; 0x80011f <__data_end+0x1>
    1d52:	2a 17       	cp	r18, r26
    1d54:	3b 07       	cpc	r19, r27
    1d56:	c9 f4       	brne	.+50     	; 0x1d8a <async+0x174>
    1d58:	9c 01       	movw	r18, r24
    1d5a:	40 91 84 00 	lds	r20, 0x0084	; 0x800084 <__TEXT_REGION_LENGTH__+0x7fc084>
    1d5e:	50 91 85 00 	lds	r21, 0x0085	; 0x800085 <__TEXT_REGION_LENGTH__+0x7fc085>
    1d62:	84 1b       	sub	r24, r20
    1d64:	95 0b       	sbc	r25, r21
    1d66:	01 97       	sbiw	r24, 0x01	; 1
    1d68:	31 f4       	brne	.+12     	; 0x1d76 <async+0x160>
    1d6a:	20 91 84 00 	lds	r18, 0x0084	; 0x800084 <__TEXT_REGION_LENGTH__+0x7fc084>
    1d6e:	30 91 85 00 	lds	r19, 0x0085	; 0x800085 <__TEXT_REGION_LENGTH__+0x7fc085>
    1d72:	2f 5f       	subi	r18, 0xFF	; 255
    1d74:	3f 4f       	sbci	r19, 0xFF	; 255
    1d76:	30 93 89 00 	sts	0x0089, r19	; 0x800089 <__TEXT_REGION_LENGTH__+0x7fc089>
    1d7a:	20 93 88 00 	sts	0x0088, r18	; 0x800088 <__TEXT_REGION_LENGTH__+0x7fc088>
    1d7e:	ef e6       	ldi	r30, 0x6F	; 111
    1d80:	f0 e0       	ldi	r31, 0x00	; 0
    1d82:	80 81       	ld	r24, Z
    1d84:	82 60       	ori	r24, 0x02	; 2
    1d86:	80 83       	st	Z, r24
    1d88:	39 c0       	rjmp	.+114    	; 0x1dfc <async+0x1e6>
    1d8a:	ef e6       	ldi	r30, 0x6F	; 111
    1d8c:	f0 e0       	ldi	r31, 0x00	; 0
    1d8e:	80 81       	ld	r24, Z
    1d90:	8d 7f       	andi	r24, 0xFD	; 253
    1d92:	80 83       	st	Z, r24
    1d94:	33 c0       	rjmp	.+102    	; 0x1dfc <async+0x1e6>
    1d96:	66 e2       	ldi	r22, 0x26	; 38
    1d98:	71 e0       	ldi	r23, 0x01	; 1
    1d9a:	ce 01       	movw	r24, r28
    1d9c:	0e 94 79 04 	call	0x8f2	; 0x8f2 <enqueueByDeadline>
    1da0:	33 20       	and	r3, r3
    1da2:	61 f1       	breq	.+88     	; 0x1dfc <async+0x1e6>
    1da4:	80 91 04 01 	lds	r24, 0x0104	; 0x800104 <threadPool>
    1da8:	90 91 05 01 	lds	r25, 0x0105	; 0x800105 <threadPool+0x1>
    1dac:	89 2b       	or	r24, r25
    1dae:	31 f1       	breq	.+76     	; 0x1dfc <async+0x1e6>
    1db0:	e0 91 26 01 	lds	r30, 0x0126	; 0x800126 <msgQ>
    1db4:	f0 91 27 01 	lds	r31, 0x0127	; 0x800127 <msgQ+0x1>
    1db8:	86 81       	ldd	r24, Z+6	; 0x06
    1dba:	97 81       	ldd	r25, Z+7	; 0x07
    1dbc:	a0 85       	ldd	r26, Z+8	; 0x08
    1dbe:	b1 85       	ldd	r27, Z+9	; 0x09
    1dc0:	e0 91 02 01 	lds	r30, 0x0102	; 0x800102 <activeStack>
    1dc4:	f0 91 03 01 	lds	r31, 0x0103	; 0x800103 <activeStack+0x1>
    1dc8:	02 80       	ldd	r0, Z+2	; 0x02
    1dca:	f3 81       	ldd	r31, Z+3	; 0x03
    1dcc:	e0 2d       	mov	r30, r0
    1dce:	46 81       	ldd	r20, Z+6	; 0x06
    1dd0:	57 81       	ldd	r21, Z+7	; 0x07
    1dd2:	60 85       	ldd	r22, Z+8	; 0x08
    1dd4:	71 85       	ldd	r23, Z+9	; 0x09
    1dd6:	84 1b       	sub	r24, r20
    1dd8:	95 0b       	sbc	r25, r21
    1dda:	a6 0b       	sbc	r26, r22
    1ddc:	b7 0b       	sbc	r27, r23
    1dde:	72 f4       	brpl	.+28     	; 0x1dfc <async+0x1e6>
    1de0:	84 e0       	ldi	r24, 0x04	; 4
    1de2:	91 e0       	ldi	r25, 0x01	; 1
    1de4:	0e 94 06 05 	call	0xa0c	; 0xa0c <pop>
    1de8:	62 e0       	ldi	r22, 0x02	; 2
    1dea:	71 e0       	ldi	r23, 0x01	; 1
    1dec:	0e 94 fc 04 	call	0x9f8	; 0x9f8 <push>
    1df0:	80 91 02 01 	lds	r24, 0x0102	; 0x800102 <activeStack>
    1df4:	90 91 03 01 	lds	r25, 0x0103	; 0x800103 <activeStack+0x1>
    1df8:	0e 94 59 04 	call	0x8b2	; 0x8b2 <dispatch>
    1dfc:	33 20       	and	r3, r3
    1dfe:	09 f0       	breq	.+2      	; 0x1e02 <async+0x1ec>
    1e00:	78 94       	sei
    1e02:	ce 01       	movw	r24, r28
    1e04:	df 91       	pop	r29
    1e06:	cf 91       	pop	r28
    1e08:	1f 91       	pop	r17
    1e0a:	0f 91       	pop	r16
    1e0c:	ff 90       	pop	r15
    1e0e:	ef 90       	pop	r14
    1e10:	df 90       	pop	r13
    1e12:	cf 90       	pop	r12
    1e14:	bf 90       	pop	r11
    1e16:	af 90       	pop	r10
    1e18:	9f 90       	pop	r9
    1e1a:	8f 90       	pop	r8
    1e1c:	7f 90       	pop	r7
    1e1e:	6f 90       	pop	r6
    1e20:	5f 90       	pop	r5
    1e22:	4f 90       	pop	r4
    1e24:	3f 90       	pop	r3
    1e26:	08 95       	ret

00001e28 <sync>:
    1e28:	cf 92       	push	r12
    1e2a:	df 92       	push	r13
    1e2c:	ef 92       	push	r14
    1e2e:	ff 92       	push	r15
    1e30:	0f 93       	push	r16
    1e32:	1f 93       	push	r17
    1e34:	cf 93       	push	r28
    1e36:	df 93       	push	r29
    1e38:	ec 01       	movw	r28, r24
    1e3a:	7b 01       	movw	r14, r22
    1e3c:	6a 01       	movw	r12, r20
    1e3e:	1f b7       	in	r17, 0x3f	; 63
    1e40:	10 78       	andi	r17, 0x80	; 128
    1e42:	f8 94       	cli
    1e44:	a8 81       	ld	r26, Y
    1e46:	b9 81       	ldd	r27, Y+1	; 0x01
    1e48:	10 97       	sbiw	r26, 0x00	; 0
    1e4a:	19 f4       	brne	.+6      	; 0x1e52 <sync+0x2a>
    1e4c:	35 c0       	rjmp	.+106    	; 0x1eb8 <sync+0x90>
    1e4e:	a0 81       	ld	r26, Z
    1e50:	b1 81       	ldd	r27, Z+1	; 0x01
    1e52:	14 96       	adiw	r26, 0x04	; 4
    1e54:	ed 91       	ld	r30, X+
    1e56:	fc 91       	ld	r31, X
    1e58:	15 97       	sbiw	r26, 0x05	; 5
    1e5a:	30 97       	sbiw	r30, 0x00	; 0
    1e5c:	c1 f7       	brne	.-16     	; 0x1e4e <sync+0x26>
    1e5e:	20 91 00 01 	lds	r18, 0x0100	; 0x800100 <__DATA_REGION_ORIGIN__>
    1e62:	30 91 01 01 	lds	r19, 0x0101	; 0x800101 <__DATA_REGION_ORIGIN__+0x1>
    1e66:	a2 17       	cp	r26, r18
    1e68:	b3 07       	cpc	r27, r19
    1e6a:	11 f0       	breq	.+4      	; 0x1e70 <sync+0x48>
    1e6c:	11 11       	cpse	r17, r1
    1e6e:	07 c0       	rjmp	.+14     	; 0x1e7e <sync+0x56>
    1e70:	11 23       	and	r17, r17
    1e72:	09 f4       	brne	.+2      	; 0x1e76 <sync+0x4e>
    1e74:	4a c0       	rjmp	.+148    	; 0x1f0a <sync+0xe2>
    1e76:	78 94       	sei
    1e78:	8f ef       	ldi	r24, 0xFF	; 255
    1e7a:	9f ef       	ldi	r25, 0xFF	; 255
    1e7c:	4e c0       	rjmp	.+156    	; 0x1f1a <sync+0xf2>
    1e7e:	8a 81       	ldd	r24, Y+2	; 0x02
    1e80:	9b 81       	ldd	r25, Y+3	; 0x03
    1e82:	00 97       	sbiw	r24, 0x00	; 0
    1e84:	19 f0       	breq	.+6      	; 0x1e8c <sync+0x64>
    1e86:	fc 01       	movw	r30, r24
    1e88:	15 82       	std	Z+5, r1	; 0x05
    1e8a:	14 82       	std	Z+4, r1	; 0x04
    1e8c:	3b 83       	std	Y+3, r19	; 0x03
    1e8e:	2a 83       	std	Y+2, r18	; 0x02
    1e90:	f9 01       	movw	r30, r18
    1e92:	d5 83       	std	Z+5, r29	; 0x05
    1e94:	c4 83       	std	Z+4, r28	; 0x04
    1e96:	cd 01       	movw	r24, r26
    1e98:	0e 94 59 04 	call	0x8b2	; 0x8b2 <dispatch>
    1e9c:	e0 91 00 01 	lds	r30, 0x0100	; 0x800100 <__DATA_REGION_ORIGIN__>
    1ea0:	f0 91 01 01 	lds	r31, 0x0101	; 0x800101 <__DATA_REGION_ORIGIN__+0x1>
    1ea4:	82 81       	ldd	r24, Z+2	; 0x02
    1ea6:	93 81       	ldd	r25, Z+3	; 0x03
    1ea8:	89 2b       	or	r24, r25
    1eaa:	31 f4       	brne	.+12     	; 0x1eb8 <sync+0x90>
    1eac:	11 23       	and	r17, r17
    1eae:	81 f1       	breq	.+96     	; 0x1f10 <sync+0xe8>
    1eb0:	78 94       	sei
    1eb2:	80 e0       	ldi	r24, 0x00	; 0
    1eb4:	90 e0       	ldi	r25, 0x00	; 0
    1eb6:	31 c0       	rjmp	.+98     	; 0x1f1a <sync+0xf2>
    1eb8:	80 91 00 01 	lds	r24, 0x0100	; 0x800100 <__DATA_REGION_ORIGIN__>
    1ebc:	90 91 01 01 	lds	r25, 0x0101	; 0x800101 <__DATA_REGION_ORIGIN__+0x1>
    1ec0:	99 83       	std	Y+1, r25	; 0x01
    1ec2:	88 83       	st	Y, r24
    1ec4:	11 23       	and	r17, r17
    1ec6:	29 f0       	breq	.+10     	; 0x1ed2 <sync+0xaa>
    1ec8:	8a 81       	ldd	r24, Y+2	; 0x02
    1eca:	9b 81       	ldd	r25, Y+3	; 0x03
    1ecc:	01 97       	sbiw	r24, 0x01	; 1
    1ece:	09 f0       	breq	.+2      	; 0x1ed2 <sync+0xaa>
    1ed0:	78 94       	sei
    1ed2:	b6 01       	movw	r22, r12
    1ed4:	ce 01       	movw	r24, r28
    1ed6:	f7 01       	movw	r30, r14
    1ed8:	09 95       	icall
    1eda:	f8 2e       	mov	r15, r24
    1edc:	09 2f       	mov	r16, r25
    1ede:	8f b7       	in	r24, 0x3f	; 63
    1ee0:	f8 94       	cli
    1ee2:	19 82       	std	Y+1, r1	; 0x01
    1ee4:	18 82       	st	Y, r1
    1ee6:	8a 81       	ldd	r24, Y+2	; 0x02
    1ee8:	9b 81       	ldd	r25, Y+3	; 0x03
    1eea:	82 30       	cpi	r24, 0x02	; 2
    1eec:	91 05       	cpc	r25, r1
    1eee:	38 f0       	brcs	.+14     	; 0x1efe <sync+0xd6>
    1ef0:	1b 82       	std	Y+3, r1	; 0x03
    1ef2:	1a 82       	std	Y+2, r1	; 0x02
    1ef4:	fc 01       	movw	r30, r24
    1ef6:	15 82       	std	Z+5, r1	; 0x05
    1ef8:	14 82       	std	Z+4, r1	; 0x04
    1efa:	0e 94 59 04 	call	0x8b2	; 0x8b2 <dispatch>
    1efe:	11 23       	and	r17, r17
    1f00:	51 f0       	breq	.+20     	; 0x1f16 <sync+0xee>
    1f02:	78 94       	sei
    1f04:	8f 2d       	mov	r24, r15
    1f06:	90 2f       	mov	r25, r16
    1f08:	08 c0       	rjmp	.+16     	; 0x1f1a <sync+0xf2>
    1f0a:	8f ef       	ldi	r24, 0xFF	; 255
    1f0c:	9f ef       	ldi	r25, 0xFF	; 255
    1f0e:	05 c0       	rjmp	.+10     	; 0x1f1a <sync+0xf2>
    1f10:	80 e0       	ldi	r24, 0x00	; 0
    1f12:	90 e0       	ldi	r25, 0x00	; 0
    1f14:	02 c0       	rjmp	.+4      	; 0x1f1a <sync+0xf2>
    1f16:	8f 2d       	mov	r24, r15
    1f18:	90 2f       	mov	r25, r16
    1f1a:	df 91       	pop	r29
    1f1c:	cf 91       	pop	r28
    1f1e:	1f 91       	pop	r17
    1f20:	0f 91       	pop	r16
    1f22:	ff 90       	pop	r15
    1f24:	ef 90       	pop	r14
    1f26:	df 90       	pop	r13
    1f28:	cf 90       	pop	r12
    1f2a:	08 95       	ret

00001f2c <run>:
    1f2c:	00 91 00 01 	lds	r16, 0x0100	; 0x800100 <__DATA_REGION_ORIGIN__>
    1f30:	10 91 01 01 	lds	r17, 0x0101	; 0x800101 <__DATA_REGION_ORIGIN__+0x1>
    1f34:	86 e2       	ldi	r24, 0x26	; 38
    1f36:	91 e0       	ldi	r25, 0x01	; 1
    1f38:	0e 94 db 04 	call	0x9b6	; 0x9b6 <dequeue>
    1f3c:	ec 01       	movw	r28, r24
    1f3e:	f8 01       	movw	r30, r16
    1f40:	93 83       	std	Z+3, r25	; 0x03
    1f42:	82 83       	std	Z+2, r24	; 0x02
    1f44:	78 94       	sei
    1f46:	6c 85       	ldd	r22, Y+12	; 0x0c
    1f48:	7d 85       	ldd	r23, Y+13	; 0x0d
    1f4a:	4e 85       	ldd	r20, Y+14	; 0x0e
    1f4c:	5f 85       	ldd	r21, Y+15	; 0x0f
    1f4e:	8a 85       	ldd	r24, Y+10	; 0x0a
    1f50:	9b 85       	ldd	r25, Y+11	; 0x0b
    1f52:	0e 94 14 0f 	call	0x1e28	; 0x1e28 <sync>
    1f56:	8f b7       	in	r24, 0x3f	; 63
    1f58:	f8 94       	cli
    1f5a:	66 e0       	ldi	r22, 0x06	; 6
    1f5c:	71 e0       	ldi	r23, 0x01	; 1
    1f5e:	ce 01       	movw	r24, r28
    1f60:	0e 94 f2 04 	call	0x9e4	; 0x9e4 <insert>
    1f64:	e0 91 02 01 	lds	r30, 0x0102	; 0x800102 <activeStack>
    1f68:	f0 91 03 01 	lds	r31, 0x0103	; 0x800103 <activeStack+0x1>
    1f6c:	01 90       	ld	r0, Z+
    1f6e:	f0 81       	ld	r31, Z
    1f70:	e0 2d       	mov	r30, r0
    1f72:	c2 81       	ldd	r28, Z+2	; 0x02
    1f74:	d3 81       	ldd	r29, Z+3	; 0x03
    1f76:	e0 91 26 01 	lds	r30, 0x0126	; 0x800126 <msgQ>
    1f7a:	f0 91 27 01 	lds	r31, 0x0127	; 0x800127 <msgQ+0x1>
    1f7e:	30 97       	sbiw	r30, 0x00	; 0
    1f80:	a1 f0       	breq	.+40     	; 0x1faa <run+0x7e>
    1f82:	20 97       	sbiw	r28, 0x00	; 0
    1f84:	99 f2       	breq	.-90     	; 0x1f2c <run>
    1f86:	86 81       	ldd	r24, Z+6	; 0x06
    1f88:	97 81       	ldd	r25, Z+7	; 0x07
    1f8a:	a0 85       	ldd	r26, Z+8	; 0x08
    1f8c:	b1 85       	ldd	r27, Z+9	; 0x09
    1f8e:	4e 81       	ldd	r20, Y+6	; 0x06
    1f90:	5f 81       	ldd	r21, Y+7	; 0x07
    1f92:	68 85       	ldd	r22, Y+8	; 0x08
    1f94:	79 85       	ldd	r23, Y+9	; 0x09
    1f96:	84 1b       	sub	r24, r20
    1f98:	95 0b       	sbc	r25, r21
    1f9a:	a6 0b       	sbc	r26, r22
    1f9c:	b7 0b       	sbc	r27, r23
    1f9e:	18 16       	cp	r1, r24
    1fa0:	19 06       	cpc	r1, r25
    1fa2:	1a 06       	cpc	r1, r26
    1fa4:	1b 06       	cpc	r1, r27
    1fa6:	0c f0       	brlt	.+2      	; 0x1faa <run+0x7e>
    1fa8:	c1 cf       	rjmp	.-126    	; 0x1f2c <run>
    1faa:	82 e0       	ldi	r24, 0x02	; 2
    1fac:	91 e0       	ldi	r25, 0x01	; 1
    1fae:	0e 94 06 05 	call	0xa0c	; 0xa0c <pop>
    1fb2:	64 e0       	ldi	r22, 0x04	; 4
    1fb4:	71 e0       	ldi	r23, 0x01	; 1
    1fb6:	0e 94 fc 04 	call	0x9f8	; 0x9f8 <push>
    1fba:	a0 91 02 01 	lds	r26, 0x0102	; 0x800102 <activeStack>
    1fbe:	b0 91 03 01 	lds	r27, 0x0103	; 0x800103 <activeStack+0x1>
    1fc2:	02 c0       	rjmp	.+4      	; 0x1fc8 <run+0x9c>
    1fc4:	a0 81       	ld	r26, Z
    1fc6:	b1 81       	ldd	r27, Z+1	; 0x01
    1fc8:	14 96       	adiw	r26, 0x04	; 4
    1fca:	ed 91       	ld	r30, X+
    1fcc:	fc 91       	ld	r31, X
    1fce:	15 97       	sbiw	r26, 0x05	; 5
    1fd0:	30 97       	sbiw	r30, 0x00	; 0
    1fd2:	c1 f7       	brne	.-16     	; 0x1fc4 <run+0x98>
    1fd4:	cd 01       	movw	r24, r26
    1fd6:	0e 94 59 04 	call	0x8b2	; 0x8b2 <dispatch>
    1fda:	a8 cf       	rjmp	.-176    	; 0x1f2c <run>

00001fdc <install>:
    1fdc:	fc 01       	movw	r30, r24
    1fde:	42 31       	cpi	r20, 0x12	; 18
    1fe0:	b8 f4       	brcc	.+46     	; 0x2010 <install+0x34>
    1fe2:	9f b7       	in	r25, 0x3f	; 63
    1fe4:	90 78       	andi	r25, 0x80	; 128
    1fe6:	f8 94       	cli
    1fe8:	50 e0       	ldi	r21, 0x00	; 0
    1fea:	44 0f       	add	r20, r20
    1fec:	55 1f       	adc	r21, r21
    1fee:	da 01       	movw	r26, r20
    1ff0:	a8 5d       	subi	r26, 0xD8	; 216
    1ff2:	be 4f       	sbci	r27, 0xFE	; 254
    1ff4:	ed 93       	st	X+, r30
    1ff6:	fc 93       	st	X, r31
    1ff8:	da 01       	movw	r26, r20
    1ffa:	a0 54       	subi	r26, 0x40	; 64
    1ffc:	be 4f       	sbci	r27, 0xFE	; 254
    1ffe:	6d 93       	st	X+, r22
    2000:	7c 93       	st	X, r23
    2002:	21 e0       	ldi	r18, 0x01	; 1
    2004:	30 e0       	ldi	r19, 0x00	; 0
    2006:	33 83       	std	Z+3, r19	; 0x03
    2008:	22 83       	std	Z+2, r18	; 0x02
    200a:	99 23       	and	r25, r25
    200c:	09 f0       	breq	.+2      	; 0x2010 <install+0x34>
    200e:	78 94       	sei
    2010:	08 95       	ret

00002012 <tinytimber>:
    2012:	8c 01       	movw	r16, r24
    2014:	7b 01       	movw	r14, r22
    2016:	6a 01       	movw	r12, r20
    2018:	8f b7       	in	r24, 0x3f	; 63
    201a:	f8 94       	cli
    201c:	0e 94 ba 03 	call	0x774	; 0x774 <initialize>
    2020:	78 94       	sei
    2022:	e1 14       	cp	r14, r1
    2024:	f1 04       	cpc	r15, r1
    2026:	41 f0       	breq	.+16     	; 0x2038 <tinytimber+0x26>
    2028:	20 e0       	ldi	r18, 0x00	; 0
    202a:	30 e0       	ldi	r19, 0x00	; 0
    202c:	a9 01       	movw	r20, r18
    202e:	60 e0       	ldi	r22, 0x00	; 0
    2030:	70 e0       	ldi	r23, 0x00	; 0
    2032:	cb 01       	movw	r24, r22
    2034:	0e 94 0b 0e 	call	0x1c16	; 0x1c16 <async>
    2038:	8f b7       	in	r24, 0x3f	; 63
    203a:	f8 94       	cli
    203c:	0e 94 12 0d 	call	0x1a24	; 0x1a24 <idle>

00002040 <blinkDisplay>:
	int temp = (PORTE >> pin) & 1;
	blinkDisplay(temp, pin);
}

void blinkDisplay(int value, int pin){
	if (pin == 4){
    2040:	64 30       	cpi	r22, 0x04	; 4
    2042:	71 05       	cpc	r23, r1
    2044:	11 f4       	brne	.+4      	; 0x204a <blinkDisplay+0xa>
		LCDDR13 = value;
    2046:	80 93 f9 00 	sts	0x00F9, r24	; 0x8000f9 <__TEXT_REGION_LENGTH__+0x7fc0f9>
	}
	if (pin == 6)
    204a:	66 30       	cpi	r22, 0x06	; 6
    204c:	71 05       	cpc	r23, r1
    204e:	11 f4       	brne	.+4      	; 0x2054 <blinkDisplay+0x14>
	{
		LCDDR18 = value;
    2050:	80 93 fe 00 	sts	0x00FE, r24	; 0x8000fe <__TEXT_REGION_LENGTH__+0x7fc0fe>
    2054:	08 95       	ret

00002056 <turnOffPin>:

#include "Writing.h"
#include <avr/io.h>

void turnOffPin(PortWriter *self, int pin){
	PORTE &= ~(1 << pin);
    2056:	2e b1       	in	r18, 0x0e	; 14
    2058:	81 e0       	ldi	r24, 0x01	; 1
    205a:	90 e0       	ldi	r25, 0x00	; 0
    205c:	06 2e       	mov	r0, r22
    205e:	02 c0       	rjmp	.+4      	; 0x2064 <turnOffPin+0xe>
    2060:	88 0f       	add	r24, r24
    2062:	99 1f       	adc	r25, r25
    2064:	0a 94       	dec	r0
    2066:	e2 f7       	brpl	.-8      	; 0x2060 <turnOffPin+0xa>
    2068:	80 95       	com	r24
    206a:	82 23       	and	r24, r18
    206c:	8e b9       	out	0x0e, r24	; 14
	blinkDisplay(0, pin);
    206e:	80 e0       	ldi	r24, 0x00	; 0
    2070:	90 e0       	ldi	r25, 0x00	; 0
    2072:	0e 94 20 10 	call	0x2040	; 0x2040 <blinkDisplay>
    2076:	08 95       	ret

00002078 <invertPin>:
}

void invertPin(PortWriter *self, int pin){
	PORTE ^= (1 << pin); 
    2078:	2e b1       	in	r18, 0x0e	; 14
    207a:	81 e0       	ldi	r24, 0x01	; 1
    207c:	90 e0       	ldi	r25, 0x00	; 0
    207e:	06 2e       	mov	r0, r22
    2080:	02 c0       	rjmp	.+4      	; 0x2086 <invertPin+0xe>
    2082:	88 0f       	add	r24, r24
    2084:	99 1f       	adc	r25, r25
    2086:	0a 94       	dec	r0
    2088:	e2 f7       	brpl	.-8      	; 0x2082 <invertPin+0xa>
    208a:	82 27       	eor	r24, r18
    208c:	8e b9       	out	0x0e, r24	; 14
	int temp = (PORTE >> pin) & 1;
    208e:	8e b1       	in	r24, 0x0e	; 14
    2090:	90 e0       	ldi	r25, 0x00	; 0
    2092:	06 2e       	mov	r0, r22
    2094:	02 c0       	rjmp	.+4      	; 0x209a <invertPin+0x22>
    2096:	95 95       	asr	r25
    2098:	87 95       	ror	r24
    209a:	0a 94       	dec	r0
    209c:	e2 f7       	brpl	.-8      	; 0x2096 <invertPin+0x1e>
	blinkDisplay(temp, pin);
    209e:	81 70       	andi	r24, 0x01	; 1
    20a0:	99 27       	eor	r25, r25
    20a2:	0e 94 20 10 	call	0x2040	; 0x2040 <blinkDisplay>
    20a6:	08 95       	ret

000020a8 <__divmodhi4>:
    20a8:	97 fb       	bst	r25, 7
    20aa:	07 2e       	mov	r0, r23
    20ac:	16 f4       	brtc	.+4      	; 0x20b2 <__divmodhi4+0xa>
    20ae:	00 94       	com	r0
    20b0:	07 d0       	rcall	.+14     	; 0x20c0 <__divmodhi4_neg1>
    20b2:	77 fd       	sbrc	r23, 7
    20b4:	09 d0       	rcall	.+18     	; 0x20c8 <__divmodhi4_neg2>
    20b6:	0e 94 92 10 	call	0x2124	; 0x2124 <__udivmodhi4>
    20ba:	07 fc       	sbrc	r0, 7
    20bc:	05 d0       	rcall	.+10     	; 0x20c8 <__divmodhi4_neg2>
    20be:	3e f4       	brtc	.+14     	; 0x20ce <__divmodhi4_exit>

000020c0 <__divmodhi4_neg1>:
    20c0:	90 95       	com	r25
    20c2:	81 95       	neg	r24
    20c4:	9f 4f       	sbci	r25, 0xFF	; 255
    20c6:	08 95       	ret

000020c8 <__divmodhi4_neg2>:
    20c8:	70 95       	com	r23
    20ca:	61 95       	neg	r22
    20cc:	7f 4f       	sbci	r23, 0xFF	; 255

000020ce <__divmodhi4_exit>:
    20ce:	08 95       	ret

000020d0 <__divmodsi4>:
    20d0:	05 2e       	mov	r0, r21
    20d2:	97 fb       	bst	r25, 7
    20d4:	1e f4       	brtc	.+6      	; 0x20dc <__divmodsi4+0xc>
    20d6:	00 94       	com	r0
    20d8:	0e 94 7f 10 	call	0x20fe	; 0x20fe <__negsi2>
    20dc:	57 fd       	sbrc	r21, 7
    20de:	07 d0       	rcall	.+14     	; 0x20ee <__divmodsi4_neg2>
    20e0:	0e 94 a6 10 	call	0x214c	; 0x214c <__udivmodsi4>
    20e4:	07 fc       	sbrc	r0, 7
    20e6:	03 d0       	rcall	.+6      	; 0x20ee <__divmodsi4_neg2>
    20e8:	4e f4       	brtc	.+18     	; 0x20fc <__divmodsi4_exit>
    20ea:	0c 94 7f 10 	jmp	0x20fe	; 0x20fe <__negsi2>

000020ee <__divmodsi4_neg2>:
    20ee:	50 95       	com	r21
    20f0:	40 95       	com	r20
    20f2:	30 95       	com	r19
    20f4:	21 95       	neg	r18
    20f6:	3f 4f       	sbci	r19, 0xFF	; 255
    20f8:	4f 4f       	sbci	r20, 0xFF	; 255
    20fa:	5f 4f       	sbci	r21, 0xFF	; 255

000020fc <__divmodsi4_exit>:
    20fc:	08 95       	ret

000020fe <__negsi2>:
    20fe:	90 95       	com	r25
    2100:	80 95       	com	r24
    2102:	70 95       	com	r23
    2104:	61 95       	neg	r22
    2106:	7f 4f       	sbci	r23, 0xFF	; 255
    2108:	8f 4f       	sbci	r24, 0xFF	; 255
    210a:	9f 4f       	sbci	r25, 0xFF	; 255
    210c:	08 95       	ret

0000210e <__muluhisi3>:
    210e:	0e 94 c8 10 	call	0x2190	; 0x2190 <__umulhisi3>
    2112:	a5 9f       	mul	r26, r21
    2114:	90 0d       	add	r25, r0
    2116:	b4 9f       	mul	r27, r20
    2118:	90 0d       	add	r25, r0
    211a:	a4 9f       	mul	r26, r20
    211c:	80 0d       	add	r24, r0
    211e:	91 1d       	adc	r25, r1
    2120:	11 24       	eor	r1, r1
    2122:	08 95       	ret

00002124 <__udivmodhi4>:
    2124:	aa 1b       	sub	r26, r26
    2126:	bb 1b       	sub	r27, r27
    2128:	51 e1       	ldi	r21, 0x11	; 17
    212a:	07 c0       	rjmp	.+14     	; 0x213a <__udivmodhi4_ep>

0000212c <__udivmodhi4_loop>:
    212c:	aa 1f       	adc	r26, r26
    212e:	bb 1f       	adc	r27, r27
    2130:	a6 17       	cp	r26, r22
    2132:	b7 07       	cpc	r27, r23
    2134:	10 f0       	brcs	.+4      	; 0x213a <__udivmodhi4_ep>
    2136:	a6 1b       	sub	r26, r22
    2138:	b7 0b       	sbc	r27, r23

0000213a <__udivmodhi4_ep>:
    213a:	88 1f       	adc	r24, r24
    213c:	99 1f       	adc	r25, r25
    213e:	5a 95       	dec	r21
    2140:	a9 f7       	brne	.-22     	; 0x212c <__udivmodhi4_loop>
    2142:	80 95       	com	r24
    2144:	90 95       	com	r25
    2146:	bc 01       	movw	r22, r24
    2148:	cd 01       	movw	r24, r26
    214a:	08 95       	ret

0000214c <__udivmodsi4>:
    214c:	a1 e2       	ldi	r26, 0x21	; 33
    214e:	1a 2e       	mov	r1, r26
    2150:	aa 1b       	sub	r26, r26
    2152:	bb 1b       	sub	r27, r27
    2154:	fd 01       	movw	r30, r26
    2156:	0d c0       	rjmp	.+26     	; 0x2172 <__udivmodsi4_ep>

00002158 <__udivmodsi4_loop>:
    2158:	aa 1f       	adc	r26, r26
    215a:	bb 1f       	adc	r27, r27
    215c:	ee 1f       	adc	r30, r30
    215e:	ff 1f       	adc	r31, r31
    2160:	a2 17       	cp	r26, r18
    2162:	b3 07       	cpc	r27, r19
    2164:	e4 07       	cpc	r30, r20
    2166:	f5 07       	cpc	r31, r21
    2168:	20 f0       	brcs	.+8      	; 0x2172 <__udivmodsi4_ep>
    216a:	a2 1b       	sub	r26, r18
    216c:	b3 0b       	sbc	r27, r19
    216e:	e4 0b       	sbc	r30, r20
    2170:	f5 0b       	sbc	r31, r21

00002172 <__udivmodsi4_ep>:
    2172:	66 1f       	adc	r22, r22
    2174:	77 1f       	adc	r23, r23
    2176:	88 1f       	adc	r24, r24
    2178:	99 1f       	adc	r25, r25
    217a:	1a 94       	dec	r1
    217c:	69 f7       	brne	.-38     	; 0x2158 <__udivmodsi4_loop>
    217e:	60 95       	com	r22
    2180:	70 95       	com	r23
    2182:	80 95       	com	r24
    2184:	90 95       	com	r25
    2186:	9b 01       	movw	r18, r22
    2188:	ac 01       	movw	r20, r24
    218a:	bd 01       	movw	r22, r26
    218c:	cf 01       	movw	r24, r30
    218e:	08 95       	ret

00002190 <__umulhisi3>:
    2190:	a2 9f       	mul	r26, r18
    2192:	b0 01       	movw	r22, r0
    2194:	b3 9f       	mul	r27, r19
    2196:	c0 01       	movw	r24, r0
    2198:	a3 9f       	mul	r26, r19
    219a:	70 0d       	add	r23, r0
    219c:	81 1d       	adc	r24, r1
    219e:	11 24       	eor	r1, r1
    21a0:	91 1d       	adc	r25, r1
    21a2:	b2 9f       	mul	r27, r18
    21a4:	70 0d       	add	r23, r0
    21a6:	81 1d       	adc	r24, r1
    21a8:	11 24       	eor	r1, r1
    21aa:	91 1d       	adc	r25, r1
    21ac:	08 95       	ret

000021ae <setjmp>:
    21ae:	dc 01       	movw	r26, r24
    21b0:	2d 92       	st	X+, r2
    21b2:	3d 92       	st	X+, r3
    21b4:	4d 92       	st	X+, r4
    21b6:	5d 92       	st	X+, r5
    21b8:	6d 92       	st	X+, r6
    21ba:	7d 92       	st	X+, r7
    21bc:	8d 92       	st	X+, r8
    21be:	9d 92       	st	X+, r9
    21c0:	ad 92       	st	X+, r10
    21c2:	bd 92       	st	X+, r11
    21c4:	cd 92       	st	X+, r12
    21c6:	dd 92       	st	X+, r13
    21c8:	ed 92       	st	X+, r14
    21ca:	fd 92       	st	X+, r15
    21cc:	0d 93       	st	X+, r16
    21ce:	1d 93       	st	X+, r17
    21d0:	cd 93       	st	X+, r28
    21d2:	dd 93       	st	X+, r29
    21d4:	ff 91       	pop	r31
    21d6:	ef 91       	pop	r30
    21d8:	8d b7       	in	r24, 0x3d	; 61
    21da:	8d 93       	st	X+, r24
    21dc:	8e b7       	in	r24, 0x3e	; 62
    21de:	8d 93       	st	X+, r24
    21e0:	8f b7       	in	r24, 0x3f	; 63
    21e2:	8d 93       	st	X+, r24
    21e4:	ed 93       	st	X+, r30
    21e6:	fd 93       	st	X+, r31
    21e8:	88 27       	eor	r24, r24
    21ea:	99 27       	eor	r25, r25
    21ec:	09 94       	ijmp

000021ee <longjmp>:
    21ee:	dc 01       	movw	r26, r24
    21f0:	cb 01       	movw	r24, r22
    21f2:	81 30       	cpi	r24, 0x01	; 1
    21f4:	91 05       	cpc	r25, r1
    21f6:	81 1d       	adc	r24, r1
    21f8:	2d 90       	ld	r2, X+
    21fa:	3d 90       	ld	r3, X+
    21fc:	4d 90       	ld	r4, X+
    21fe:	5d 90       	ld	r5, X+
    2200:	6d 90       	ld	r6, X+
    2202:	7d 90       	ld	r7, X+
    2204:	8d 90       	ld	r8, X+
    2206:	9d 90       	ld	r9, X+
    2208:	ad 90       	ld	r10, X+
    220a:	bd 90       	ld	r11, X+
    220c:	cd 90       	ld	r12, X+
    220e:	dd 90       	ld	r13, X+
    2210:	ed 90       	ld	r14, X+
    2212:	fd 90       	ld	r15, X+
    2214:	0d 91       	ld	r16, X+
    2216:	1d 91       	ld	r17, X+
    2218:	cd 91       	ld	r28, X+
    221a:	dd 91       	ld	r29, X+
    221c:	ed 91       	ld	r30, X+
    221e:	fd 91       	ld	r31, X+
    2220:	0d 90       	ld	r0, X+
    2222:	f8 94       	cli
    2224:	fe bf       	out	0x3e, r31	; 62
    2226:	0f be       	out	0x3f, r0	; 63
    2228:	ed bf       	out	0x3d, r30	; 61
    222a:	ed 91       	ld	r30, X+
    222c:	fd 91       	ld	r31, X+
    222e:	09 94       	ijmp

00002230 <_exit>:
    2230:	f8 94       	cli

00002232 <__stop_program>:
    2232:	ff cf       	rjmp	.-2      	; 0x2232 <__stop_program>
